---
triple:          'arm64-apple-darwin'
binary-path:     Compiler
relocations:
  - { offsetInCU: 0x3F, offset: 0x3F, size: 0x8, addend: 0x0, symName: _reversedMap, symObjAddr: 0xEB988, symBinAddr: 0x100028020, symSize: 0x0 }
  - { offsetInCU: 0x17557, offset: 0x17557, size: 0x8, addend: 0x0, symName: __ZNSt3__124__put_character_sequenceB7v160006IcNS_11char_traitsIcEEEERNS_13basic_ostreamIT_T0_EES7_PKS4_m, symObjAddr: 0x197E4, symBinAddr: 0x10001DDB4, symSize: 0x1EC }
  - { offsetInCU: 0x1A840, offset: 0x1A840, size: 0x8, addend: 0x0, symName: __ZNSt3__1neB7v160006ERKNS_19__hash_map_iteratorINS_15__hash_iteratorIPNS_11__hash_nodeINS_17__hash_value_typeINS_12basic_stringIcNS_11char_traitsIcEENS_9allocatorIcEEEE7LexTypeEEPvEEEEEESI_, symObjAddr: 0x474, symBinAddr: 0x100004A44, symSize: 0x30 }
  - { offsetInCU: 0x1A87D, offset: 0x1A87D, size: 0x8, addend: 0x0, symName: __ZNSt3__1lsB7v160006INS_11char_traitsIcEEEERNS_13basic_ostreamIcT_EES6_PKc, symObjAddr: 0x13B4, symBinAddr: 0x100005984, symSize: 0x48 }
  - { offsetInCU: 0x1A8C3, offset: 0x1A8C3, size: 0x8, addend: 0x0, symName: __ZNSt3__14endlB7v160006IcNS_11char_traitsIcEEEERNS_13basic_ostreamIT_T0_EES7_, symObjAddr: 0x1428, symBinAddr: 0x1000059F8, symSize: 0x58 }
  - { offsetInCU: 0x1A903, offset: 0x1A903, size: 0x8, addend: 0x0, symName: __ZNSt3__1neB7v160006IPcEEbRKNS_11__wrap_iterIT_EES6_, symObjAddr: 0x1718, symBinAddr: 0x100005CE8, symSize: 0x34 }
  - { offsetInCU: 0x1B1AF, offset: 0x1B1AF, size: 0x8, addend: 0x0, symName: __ZNSt3__1neB7v160006IP7MyTokenEEbRKNS_11__wrap_iterIT_EES7_, symObjAddr: 0x1DE8, symBinAddr: 0x1000063B8, symSize: 0x34 }
  - { offsetInCU: 0x1B1F2, offset: 0x1B1F2, size: 0x8, addend: 0x0, symName: __ZNSt3__1lsB7v160006IcNS_11char_traitsIcEENS_9allocatorIcEEEERNS_13basic_ostreamIT_T0_EES9_RKNS_12basic_stringIS6_S7_T1_EE, symObjAddr: 0x1E68, symBinAddr: 0x100006438, symSize: 0x4C }
  - { offsetInCU: 0x1B24A, offset: 0x1B24A, size: 0x8, addend: 0x0, symName: __ZNSt3__1lsB7v160006INS_11char_traitsIcEEEERNS_13basic_ostreamIcT_EES6_c, symObjAddr: 0x1EB4, symBinAddr: 0x100006484, symSize: 0x34 }
  - { offsetInCU: 0x1BBB3, offset: 0x1BBB3, size: 0x8, addend: 0x0, symName: __ZNSt3__1eqB7v160006IPcEEbRKNS_11__wrap_iterIT_EES6_, symObjAddr: 0x5048, symBinAddr: 0x100009618, symSize: 0x48 }
  - { offsetInCU: 0x1BBF6, offset: 0x1BBF6, size: 0x8, addend: 0x0, symName: __ZNSt3__1eqB7v160006IP7MyTokenEEbRKNS_11__wrap_iterIT_EES7_, symObjAddr: 0x50A8, symBinAddr: 0x100009678, symSize: 0x48 }
  - { offsetInCU: 0x1BC39, offset: 0x1BC39, size: 0x8, addend: 0x0, symName: __ZNSt3__116__constrain_hashB7v160006Emm, symObjAddr: 0x5C70, symBinAddr: 0x10000A240, symSize: 0x98 }
  - { offsetInCU: 0x1BC73, offset: 0x1BC73, size: 0x8, addend: 0x0, symName: __ZNSt3__13maxB7v160006ImEERKT_S3_S3_, symObjAddr: 0x5FA4, symBinAddr: 0x10000A574, symSize: 0x2C }
  - { offsetInCU: 0x1BCB6, offset: 0x1BCB6, size: 0x8, addend: 0x0, symName: __ZNSt3__116__is_hash_power2B7v160006Em, symObjAddr: 0x5FD0, symBinAddr: 0x10000A5A0, symSize: 0x50 }
  - { offsetInCU: 0x1BCE2, offset: 0x1BCE2, size: 0x8, addend: 0x0, symName: __ZNSt3__116__do_string_hashB7v160006IPKcEEmT_S3_, symObjAddr: 0x6254, symBinAddr: 0x10000A824, symSize: 0x3C }
  - { offsetInCU: 0x1BD28, offset: 0x1BD28, size: 0x8, addend: 0x0, symName: __ZNSt3__110__loadwordB7v160006ImEET_PKv, symObjAddr: 0x6CD0, symBinAddr: 0x10000B2A0, symSize: 0x20 }
  - { offsetInCU: 0x1BD6B, offset: 0x1BD6B, size: 0x8, addend: 0x0, symName: __ZNSt3__14swapB7v160006ImEENS_9enable_ifIXaasr21is_move_constructibleIT_EE5valuesr18is_move_assignableIS2_EE5valueEvE4typeERS2_S5_, symObjAddr: 0x6E8C, symBinAddr: 0x10000B45C, symSize: 0x3C }
  - { offsetInCU: 0x1BDBC, offset: 0x1BDBC, size: 0x8, addend: 0x0, symName: __ZNSt3__110__loadwordB7v160006IjEET_PKv, symObjAddr: 0x6F1C, symBinAddr: 0x10000B4EC, symSize: 0x20 }
  - { offsetInCU: 0x1BDFF, offset: 0x1BDFF, size: 0x8, addend: 0x0, symName: __ZNSt3__112__to_addressB7v160006IKcEEPT_S3_, symObjAddr: 0x7084, symBinAddr: 0x10000B654, symSize: 0x14 }
  - { offsetInCU: 0x1BE67, offset: 0x1BE67, size: 0x8, addend: 0x0, symName: __ZNSt3__1eqB7v160006INS_9allocatorIcEEEEbRKNS_12basic_stringIcNS_11char_traitsIcEET_EES9_, symObjAddr: 0x73A4, symBinAddr: 0x10000B974, symSize: 0x148 }
  - { offsetInCU: 0x1BEDA, offset: 0x1BEDA, size: 0x8, addend: 0x0, symName: __ZNSt3__118__constexpr_memcmpB7v160006IcEEiPKT_S3_m, symObjAddr: 0x7558, symBinAddr: 0x10000BB28, symSize: 0x34 }
  - { offsetInCU: 0x1BF2B, offset: 0x1BF2B, size: 0x8, addend: 0x0, symName: __ZNSt3__17launderB7v160006IKNS_4pairIKNS_12basic_stringIcNS_11char_traitsIcEENS_9allocatorIcEEEE7LexTypeEEEEPT_SD_, symObjAddr: 0x758C, symBinAddr: 0x10000BB5C, symSize: 0x24 }
  - { offsetInCU: 0x1BF62, offset: 0x1BF62, size: 0x8, addend: 0x0, symName: __ZNSt3__19__launderB7v160006IKNS_4pairIKNS_12basic_stringIcNS_11char_traitsIcEENS_9allocatorIcEEEE7LexTypeEEEEPT_SD_, symObjAddr: 0x75B0, symBinAddr: 0x10000BB80, symSize: 0x14 }
  - { offsetInCU: 0x1BFEA, offset: 0x1BFEA, size: 0x8, addend: 0x0, symName: __ZNSt3__117__libcpp_allocateB7v160006Emm, symObjAddr: 0x7818, symBinAddr: 0x10000BDE8, symSize: 0x60 }
  - { offsetInCU: 0x1C044, offset: 0x1C044, size: 0x8, addend: 0x0, symName: __ZNSt3__124__is_overaligned_for_newB7v160006Em, symObjAddr: 0x7890, symBinAddr: 0x10000BE60, symSize: 0x20 }
  - { offsetInCU: 0x1C072, offset: 0x1C072, size: 0x8, addend: 0x0, symName: __ZNSt3__121__libcpp_operator_newB7v160006IJmSt11align_val_tEEEPvDpT_, symObjAddr: 0x78B0, symBinAddr: 0x10000BE80, symSize: 0x2C }
  - { offsetInCU: 0x1C0BF, offset: 0x1C0BF, size: 0x8, addend: 0x0, symName: __ZNSt3__121__libcpp_operator_newB7v160006IJmEEEPvDpT_, symObjAddr: 0x78DC, symBinAddr: 0x10000BEAC, symSize: 0x24 }
  - { offsetInCU: 0x1C0F8, offset: 0x1C0F8, size: 0x8, addend: 0x0, symName: __ZNSt3__17launderB7v160006INS_4pairIKNS_12basic_stringIcNS_11char_traitsIcEENS_9allocatorIcEEEE7LexTypeEEEEPT_SC_, symObjAddr: 0x7B14, symBinAddr: 0x10000C0E4, symSize: 0x24 }
  - { offsetInCU: 0x1C12F, offset: 0x1C12F, size: 0x8, addend: 0x0, symName: __ZNSt3__19__launderB7v160006INS_4pairIKNS_12basic_stringIcNS_11char_traitsIcEENS_9allocatorIcEEEE7LexTypeEEEEPT_SC_, symObjAddr: 0x7B38, symBinAddr: 0x10000C108, symSize: 0x14 }
  - { offsetInCU: 0x1C166, offset: 0x1C166, size: 0x8, addend: 0x0, symName: __ZNSt3__116__next_hash_pow2B7v160006Em, symObjAddr: 0x8030, symBinAddr: 0x10000C600, symSize: 0x6C }
  - { offsetInCU: 0x1C192, offset: 0x1C192, size: 0x8, addend: 0x0, symName: __ZNSt3__125__debug_db_invalidate_allB7v160006INS_12__hash_tableINS_17__hash_value_typeINS_12basic_stringIcNS_11char_traitsIcEENS_9allocatorIcEEEE7LexTypeEENS_22__unordered_map_hasherIS8_SA_NS_4hashIS8_EENS_8equal_toIS8_EELb1EEENS_21__unordered_map_equalIS8_SA_SF_SD_Lb1EEENS6_ISA_EEEEEEvPT_, symObjAddr: 0x809C, symBinAddr: 0x10000C66C, symSize: 0x10 }
  - { offsetInCU: 0x1C1DF, offset: 0x1C1DF, size: 0x8, addend: 0x0, symName: __ZNSt3__119__libcpp_deallocateB7v160006EPvmm, symObjAddr: 0x8334, symBinAddr: 0x10000C904, symSize: 0x60 }
  - { offsetInCU: 0x1C244, offset: 0x1C244, size: 0x8, addend: 0x0, symName: __ZNSt3__127__do_deallocate_handle_sizeB7v160006IJSt11align_val_tEEEvPvmDpT_, symObjAddr: 0x8394, symBinAddr: 0x10000C964, symSize: 0x30 }
  - { offsetInCU: 0x1C297, offset: 0x1C297, size: 0x8, addend: 0x0, symName: __ZNSt3__127__do_deallocate_handle_sizeB7v160006IJEEEvPvmDpT_, symObjAddr: 0x83C4, symBinAddr: 0x10000C994, symSize: 0x28 }
  - { offsetInCU: 0x1C2D5, offset: 0x1C2D5, size: 0x8, addend: 0x0, symName: __ZNSt3__124__libcpp_operator_deleteB7v160006IJPvSt11align_val_tEEEvDpT_, symObjAddr: 0x83EC, symBinAddr: 0x10000C9BC, symSize: 0x2C }
  - { offsetInCU: 0x1C31E, offset: 0x1C31E, size: 0x8, addend: 0x0, symName: __ZNSt3__124__libcpp_operator_deleteB7v160006IJPvEEEvDpT_, symObjAddr: 0x8418, symBinAddr: 0x10000C9E8, symSize: 0x24 }
  - { offsetInCU: 0x1C353, offset: 0x1C353, size: 0x8, addend: 0x0, symName: __ZNSt3__112__libcpp_clzB7v160006Em, symObjAddr: 0x84F0, symBinAddr: 0x10000CAC0, symSize: 0x1C }
  - { offsetInCU: 0x1C37F, offset: 0x1C37F, size: 0x8, addend: 0x0, symName: __ZNSt3__13maxB7v160006ImNS_6__lessImmEEEERKT_S5_S5_T0_, symObjAddr: 0x850C, symBinAddr: 0x10000CADC, symSize: 0x54 }
  - { offsetInCU: 0x1C46C, offset: 0x1C46C, size: 0x8, addend: 0x0, symName: __ZNSt3__17launderB7v160006IKNS_4pairIK7LexTypeNS_12basic_stringIcNS_11char_traitsIcEENS_9allocatorIcEEEEEEEEPT_SD_, symObjAddr: 0x96CC, symBinAddr: 0x10000DC9C, symSize: 0x24 }
  - { offsetInCU: 0x1C4A3, offset: 0x1C4A3, size: 0x8, addend: 0x0, symName: __ZNSt3__19__launderB7v160006IKNS_4pairIK7LexTypeNS_12basic_stringIcNS_11char_traitsIcEENS_9allocatorIcEEEEEEEEPT_SD_, symObjAddr: 0x96F0, symBinAddr: 0x10000DCC0, symSize: 0x14 }
  - { offsetInCU: 0x1C52B, offset: 0x1C52B, size: 0x8, addend: 0x0, symName: __ZNSt3__119__debug_db_insert_cB7v160006INS_12basic_stringIcNS_11char_traitsIcEENS_9allocatorIcEEEEEEvPT_, symObjAddr: 0x9C30, symBinAddr: 0x10000E200, symSize: 0x10 }
  - { offsetInCU: 0x1C55C, offset: 0x1C55C, size: 0x8, addend: 0x0, symName: __ZNSt3__115__debug_db_swapB7v160006INS_12basic_stringIcNS_11char_traitsIcEENS_9allocatorIcEEEEEEvPT_S8_, symObjAddr: 0x9C40, symBinAddr: 0x10000E210, symSize: 0x14 }
  - { offsetInCU: 0x1C59B, offset: 0x1C59B, size: 0x8, addend: 0x0, symName: __ZNSt3__17launderB7v160006INS_4pairIK7LexTypeNS_12basic_stringIcNS_11char_traitsIcEENS_9allocatorIcEEEEEEEEPT_SC_, symObjAddr: 0x9CB0, symBinAddr: 0x10000E280, symSize: 0x24 }
  - { offsetInCU: 0x1C5D2, offset: 0x1C5D2, size: 0x8, addend: 0x0, symName: __ZNSt3__19__launderB7v160006INS_4pairIK7LexTypeNS_12basic_stringIcNS_11char_traitsIcEENS_9allocatorIcEEEEEEEEPT_SC_, symObjAddr: 0x9CD4, symBinAddr: 0x10000E2A4, symSize: 0x14 }
  - { offsetInCU: 0x1C609, offset: 0x1C609, size: 0x8, addend: 0x0, symName: __ZNSt3__125__debug_db_invalidate_allB7v160006INS_12__hash_tableINS_17__hash_value_typeI7LexTypeNS_12basic_stringIcNS_11char_traitsIcEENS_9allocatorIcEEEEEENS_22__unordered_map_hasherIS3_SA_NS_4hashIS3_EENS_8equal_toIS3_EELb1EEENS_21__unordered_map_equalIS3_SA_SF_SD_Lb1EEENS7_ISA_EEEEEEvPT_, symObjAddr: 0xA1A4, symBinAddr: 0x10000E774, symSize: 0x10 }
  - { offsetInCU: 0x1C63A, offset: 0x1C63A, size: 0x8, addend: 0x0, symName: __ZNSt3__111make_uniqueB7v160006I8TreenodeJEEENS_11__unique_ifIT_E15__unique_singleEDpOT0_, symObjAddr: 0xBCCC, symBinAddr: 0x10001029C, symSize: 0x50 }
  - { offsetInCU: 0x1C667, offset: 0x1C667, size: 0x8, addend: 0x0, symName: __ZNSt3__119__debug_db_insert_cB7v160006INS_6vectorINS_12basic_stringIcNS_11char_traitsIcEENS_9allocatorIcEEEENS5_IS7_EEEEEEvPT_, symObjAddr: 0xC018, symBinAddr: 0x1000105E8, symSize: 0x10 }
  - { offsetInCU: 0x1C698, offset: 0x1C698, size: 0x8, addend: 0x0, symName: __ZNSt3__119__debug_db_insert_cB7v160006INS_6vectorIP12SymbolsTableNS_9allocatorIS3_EEEEEEvPT_, symObjAddr: 0xC184, symBinAddr: 0x100010754, symSize: 0x10 }
  - { offsetInCU: 0x1C6C9, offset: 0x1C6C9, size: 0x8, addend: 0x0, symName: __ZNSt3__112__to_addressB7v160006INS_12basic_stringIcNS_11char_traitsIcEENS_9allocatorIcEEEEEEPT_S8_, symObjAddr: 0xC66C, symBinAddr: 0x100010C3C, symSize: 0x14 }
  - { offsetInCU: 0x1C6FE, offset: 0x1C6FE, size: 0x8, addend: 0x0, symName: __ZNSt3__13minB7v160006ImEERKT_S3_S3_, symObjAddr: 0xCAA0, symBinAddr: 0x100011070, symSize: 0x2C }
  - { offsetInCU: 0x1C92B, offset: 0x1C92B, size: 0x8, addend: 0x0, symName: __ZNSt3__13minB7v160006ImNS_6__lessImmEEEERKT_S5_S5_T0_, symObjAddr: 0xCB2C, symBinAddr: 0x1000110FC, symSize: 0x54 }
  - { offsetInCU: 0x1C985, offset: 0x1C985, size: 0x8, addend: 0x0, symName: __ZNSt3__120__throw_length_errorB7v160006EPKc, symObjAddr: 0xCBD8, symBinAddr: 0x1000111A8, symSize: 0x64 }
  - { offsetInCU: 0x1C9AD, offset: 0x1C9AD, size: 0x8, addend: 0x0, symName: __ZNSt3__119__allocate_at_leastB7v160006INS_9allocatorINS_12basic_stringIcNS_11char_traitsIcEENS1_IcEEEEEEEENS_19__allocation_resultINS_16allocator_traitsIT_E7pointerEEERSA_m, symObjAddr: 0xCE38, symBinAddr: 0x100011408, symSize: 0x40 }
  - { offsetInCU: 0x1C9F0, offset: 0x1C9F0, size: 0x8, addend: 0x0, symName: __ZNSt3__142__uninitialized_allocator_move_if_noexceptB7v160006INS_9allocatorINS_12basic_stringIcNS_11char_traitsIcEENS1_IcEEEEEENS_16reverse_iteratorIPS6_EESA_SA_EET2_RT_T0_T1_SB_, symObjAddr: 0xD0C4, symBinAddr: 0x100011694, symSize: 0x12C }
  - { offsetInCU: 0x1CA90, offset: 0x1CA90, size: 0x8, addend: 0x0, symName: __ZNSt3__14swapB7v160006IPNS_12basic_stringIcNS_11char_traitsIcEENS_9allocatorIcEEEEEENS_9enable_ifIXaasr21is_move_constructibleIT_EE5valuesr18is_move_assignableIS9_EE5valueEvE4typeERS9_SC_, symObjAddr: 0xD23C, symBinAddr: 0x10001180C, symSize: 0x3C }
  - { offsetInCU: 0x1CAE1, offset: 0x1CAE1, size: 0x8, addend: 0x0, symName: __ZNSt3__125__debug_db_invalidate_allB7v160006INS_6vectorINS_12basic_stringIcNS_11char_traitsIcEENS_9allocatorIcEEEENS5_IS7_EEEEEEvPT_, symObjAddr: 0xD340, symBinAddr: 0x100011910, symSize: 0x10 }
  - { offsetInCU: 0x1CB12, offset: 0x1CB12, size: 0x8, addend: 0x0, symName: __ZNSt3__122__make_exception_guardB7v160006INS_29_AllocatorDestroyRangeReverseINS_9allocatorINS_12basic_stringIcNS_11char_traitsIcEENS2_IcEEEEEENS_16reverse_iteratorIPS7_EEEEEENS_28__exception_guard_exceptionsIT_EESE_, symObjAddr: 0xD398, symBinAddr: 0x100011968, symSize: 0x4C }
  - { offsetInCU: 0x1CB48, offset: 0x1CB48, size: 0x8, addend: 0x0, symName: __ZNSt3__1neB7v160006IPNS_12basic_stringIcNS_11char_traitsIcEENS_9allocatorIcEEEES7_EEbRKNS_16reverse_iteratorIT_EERKNS8_IT0_EE, symObjAddr: 0xD428, symBinAddr: 0x1000119F8, symSize: 0x48 }
  - { offsetInCU: 0x1CB94, offset: 0x1CB94, size: 0x8, addend: 0x0, symName: __ZNSt3__112__to_addressB7v160006INS_16reverse_iteratorIPNS_12basic_stringIcNS_11char_traitsIcEENS_9allocatorIcEEEEEEvEENS_5decayIDTclsr19__to_address_helperIT_EE6__callclsr3stdE7declvalIRKSB_EEEEE4typeESD_, symObjAddr: 0xD4A4, symBinAddr: 0x100011A74, symSize: 0x24 }
  - { offsetInCU: 0x1CBF3, offset: 0x1CBF3, size: 0x8, addend: 0x0, symName: __ZNSt3__119__allocator_destroyB7v160006INS_9allocatorINS_12basic_stringIcNS_11char_traitsIcEENS1_IcEEEEEENS_16reverse_iteratorINS8_IPS6_EEEESB_EEvRT_T0_T1_, symObjAddr: 0xD784, symBinAddr: 0x100011D54, symSize: 0x70 }
  - { offsetInCU: 0x1CC58, offset: 0x1CC58, size: 0x8, addend: 0x0, symName: __ZNSt3__1neB7v160006INS_16reverse_iteratorIPNS_12basic_stringIcNS_11char_traitsIcEENS_9allocatorIcEEEEEES9_EEbRKNS1_IT_EERKNS1_IT0_EE, symObjAddr: 0xD830, symBinAddr: 0x100011E00, symSize: 0x60 }
  - { offsetInCU: 0x1CCA4, offset: 0x1CCA4, size: 0x8, addend: 0x0, symName: __ZNSt3__112__to_addressB7v160006INS_16reverse_iteratorINS1_IPNS_12basic_stringIcNS_11char_traitsIcEENS_9allocatorIcEEEEEEEEvEENS_5decayIDTclsr19__to_address_helperIT_EE6__callclsr3stdE7declvalIRKSC_EEEEE4typeESE_, symObjAddr: 0xD8BC, symBinAddr: 0x100011E8C, symSize: 0x24 }
  - { offsetInCU: 0x1CD03, offset: 0x1CD03, size: 0x8, addend: 0x0, symName: __ZNSt3__118__debug_db_erase_cB7v160006INS_6vectorIP12SymbolsTableNS_9allocatorIS3_EEEEEEvPT_, symObjAddr: 0xE208, symBinAddr: 0x1000127D8, symSize: 0x10 }
  - { offsetInCU: 0x1CD34, offset: 0x1CD34, size: 0x8, addend: 0x0, symName: __ZNSt3__112__to_addressB7v160006IP12SymbolsTableEEPT_S4_, symObjAddr: 0xE34C, symBinAddr: 0x10001291C, symSize: 0x14 }
  - { offsetInCU: 0x1CD69, offset: 0x1CD69, size: 0x8, addend: 0x0, symName: __ZNSt3__118__debug_db_erase_cB7v160006INS_6vectorINS_12basic_stringIcNS_11char_traitsIcEENS_9allocatorIcEEEENS5_IS7_EEEEEEvPT_, symObjAddr: 0xE638, symBinAddr: 0x100012C08, symSize: 0x10 }
  - { offsetInCU: 0x1CD9A, offset: 0x1CD9A, size: 0x8, addend: 0x0, symName: __ZNSt3__1plB7v160006IcNS_11char_traitsIcEENS_9allocatorIcEEEENS_12basic_stringIT_T0_T1_EEOS9_PKS6_, symObjAddr: 0xEF70, symBinAddr: 0x100013540, symSize: 0x40 }
  - { offsetInCU: 0x1CDF2, offset: 0x1CDF2, size: 0x8, addend: 0x0, symName: __ZNSt3__1plB7v160006IcNS_11char_traitsIcEENS_9allocatorIcEEEENS_12basic_stringIT_T0_T1_EEPKS6_OS9_, symObjAddr: 0xEFB0, symBinAddr: 0x100013580, symSize: 0x44 }
  - { offsetInCU: 0x1CE4A, offset: 0x1CE4A, size: 0x8, addend: 0x0, symName: __ZNSt3__1neB7v160006I8TreenodeNS_14default_deleteIS1_EEEEbRKNS_10unique_ptrIT_T0_EEDn, symObjAddr: 0xFA78, symBinAddr: 0x100014048, symSize: 0x2C }
  - { offsetInCU: 0x1CE95, offset: 0x1CE95, size: 0x8, addend: 0x0, symName: __ZNSt3__1plB7v160006IcNS_11char_traitsIcEENS_9allocatorIcEEEENS_12basic_stringIT_T0_T1_EEOS9_SA_, symObjAddr: 0x13C4C, symBinAddr: 0x10001821C, symSize: 0x40 }
  - { offsetInCU: 0x1D0B4, offset: 0x1D0B4, size: 0x8, addend: 0x0, symName: __ZNSt3__1neB7v160006IPNS_12basic_stringIcNS_11char_traitsIcEENS_9allocatorIcEEEEEEbRKNS_11__wrap_iterIT_EESC_, symObjAddr: 0x13E54, symBinAddr: 0x100018424, symSize: 0x34 }
  - { offsetInCU: 0x1D550, offset: 0x1D550, size: 0x8, addend: 0x0, symName: __ZNSt3__14swapB7v160006IPPP8TreenodeEENS_9enable_ifIXaasr21is_move_constructibleIT_EE5valuesr18is_move_assignableIS6_EE5valueEvE4typeERS6_S9_, symObjAddr: 0x15748, symBinAddr: 0x100019D18, symSize: 0x3C }
  - { offsetInCU: 0x1D5A1, offset: 0x1D5A1, size: 0x8, addend: 0x0, symName: __ZNSt3__14moveB7v160006IPPP8TreenodeS4_EET0_T_S6_S5_, symObjAddr: 0x15878, symBinAddr: 0x100019E48, symSize: 0x40 }
  - { offsetInCU: 0x1D5FB, offset: 0x1D5FB, size: 0x8, addend: 0x0, symName: __ZNSt3__112__to_addressB7v160006IPP8TreenodeEEPT_S5_, symObjAddr: 0x15A1C, symBinAddr: 0x100019FEC, symSize: 0x14 }
  - { offsetInCU: 0x1D630, offset: 0x1D630, size: 0x8, addend: 0x0, symName: __ZNSt3__16__moveB7v160006INS_17_ClassicAlgPolicyEPPP8TreenodeS5_S5_EENS_4pairIT0_T2_EES7_T1_S8_, symObjAddr: 0x15A30, symBinAddr: 0x10001A000, symSize: 0x44 }
  - { offsetInCU: 0x1D69C, offset: 0x1D69C, size: 0x8, addend: 0x0, symName: __ZNSt3__123__dispatch_copy_or_moveB7v160006INS_17_ClassicAlgPolicyENS_11__move_loopIS1_EENS_14__move_trivialEPPP8TreenodeS8_S8_EENS_4pairIT2_T4_EESA_T3_SB_, symObjAddr: 0x15A74, symBinAddr: 0x10001A044, symSize: 0x44 }
  - { offsetInCU: 0x1D71A, offset: 0x1D71A, size: 0x8, addend: 0x0, symName: __ZNSt3__121__unwrap_and_dispatchB7v160006INS_10__overloadINS_11__move_loopINS_17_ClassicAlgPolicyEEENS_14__move_trivialEEEPPP8TreenodeSA_SA_Li0EEENS_4pairIT0_T2_EESC_T1_SD_, symObjAddr: 0x15AB8, symBinAddr: 0x10001A088, symSize: 0xB4 }
  - { offsetInCU: 0x1D7A8, offset: 0x1D7A8, size: 0x8, addend: 0x0, symName: __ZNSt3__114__unwrap_rangeB7v160006IPPP8TreenodeS4_EENS_4pairIT0_S6_EET_S8_, symObjAddr: 0x15B6C, symBinAddr: 0x10001A13C, symSize: 0x60 }
  - { offsetInCU: 0x1D96C, offset: 0x1D96C, size: 0x8, addend: 0x0, symName: __ZNSt3__113__unwrap_iterB7v160006IPPP8TreenodeNS_18__unwrap_iter_implIS4_Lb1EEELi0EEEDTclsrT0_8__unwrapclsr3stdE7declvalIT_EEEES8_, symObjAddr: 0x15C14, symBinAddr: 0x10001A1E4, symSize: 0x24 }
  - { offsetInCU: 0x1D9B0, offset: 0x1D9B0, size: 0x8, addend: 0x0, symName: __ZNSt3__19make_pairB7v160006IPPP8TreenodeS4_EENS_4pairINS_18__unwrap_ref_decayIT_E4typeENS6_IT0_E4typeEEEOS7_OSA_, symObjAddr: 0x15C38, symBinAddr: 0x10001A208, symSize: 0x38 }
  - { offsetInCU: 0x1D9FF, offset: 0x1D9FF, size: 0x8, addend: 0x0, symName: __ZNSt3__114__rewrap_rangeB7v160006IPPP8TreenodeS4_EET_S5_T0_, symObjAddr: 0x15C70, symBinAddr: 0x10001A240, symSize: 0x2C }
  - { offsetInCU: 0x1DA4B, offset: 0x1DA4B, size: 0x8, addend: 0x0, symName: __ZNSt3__113__rewrap_iterB7v160006IPPP8TreenodeS4_NS_18__unwrap_iter_implIS4_Lb1EEEEET_S7_T0_, symObjAddr: 0x15C9C, symBinAddr: 0x10001A26C, symSize: 0x3C }
  - { offsetInCU: 0x1DAA0, offset: 0x1DAA0, size: 0x8, addend: 0x0, symName: __ZNSt3__119__copy_trivial_implB7v160006IPP8TreenodeS3_EENS_4pairIPT_PT0_EES6_S6_S8_, symObjAddr: 0x15CD8, symBinAddr: 0x10001A2A8, symSize: 0x84 }
  - { offsetInCU: 0x1DB08, offset: 0x1DB08, size: 0x8, addend: 0x0, symName: __ZNSt3__19make_pairB7v160006IRPPP8TreenodeS4_EENS_4pairINS_18__unwrap_ref_decayIT_E4typeENS7_IT0_E4typeEEEOS8_OSB_, symObjAddr: 0x15D5C, symBinAddr: 0x10001A32C, symSize: 0x38 }
  - { offsetInCU: 0x1DBAA, offset: 0x1DBAA, size: 0x8, addend: 0x0, symName: __ZNSt3__18distanceB7v160006INS_13move_iteratorIPPP8TreenodeEEEENS_15iterator_traitsIT_E15difference_typeES8_S8_, symObjAddr: 0x15EE8, symBinAddr: 0x10001A4B8, symSize: 0x3C }
  - { offsetInCU: 0x1DBED, offset: 0x1DBED, size: 0x8, addend: 0x0, symName: __ZNSt3__110__distanceB7v160006INS_13move_iteratorIPPP8TreenodeEEEENS_15iterator_traitsIT_E15difference_typeES8_S8_NS_26random_access_iterator_tagE, symObjAddr: 0x16020, symBinAddr: 0x10001A5F0, symSize: 0x30 }
  - { offsetInCU: 0x1DC3A, offset: 0x1DC3A, size: 0x8, addend: 0x0, symName: __ZNSt3__1miB7v160006IPPP8TreenodeS4_EEDTmicldtfp_4baseEcldtfp0_4baseEERKNS_13move_iteratorIT_EERKNS6_IT0_EE, symObjAddr: 0x16050, symBinAddr: 0x10001A620, symSize: 0x48 }
  - { offsetInCU: 0x1DC89, offset: 0x1DC89, size: 0x8, addend: 0x0, symName: __ZNSt3__113move_backwardB7v160006IPPP8TreenodeS4_EET0_T_S6_S5_, symObjAddr: 0x162B4, symBinAddr: 0x10001A884, symSize: 0x40 }
  - { offsetInCU: 0x1DCE3, offset: 0x1DCE3, size: 0x8, addend: 0x0, symName: __ZNSt3__115__move_backwardB7v160006INS_17_ClassicAlgPolicyEPPP8TreenodeS5_S5_EENS_4pairIT0_T2_EES7_T1_S8_, symObjAddr: 0x162F4, symBinAddr: 0x10001A8C4, symSize: 0x44 }
  - { offsetInCU: 0x1DD4F, offset: 0x1DD4F, size: 0x8, addend: 0x0, symName: __ZNSt3__123__dispatch_copy_or_moveB7v160006INS_17_ClassicAlgPolicyENS_20__move_backward_loopIS1_EENS_23__move_backward_trivialEPPP8TreenodeS8_S8_EENS_4pairIT2_T4_EESA_T3_SB_, symObjAddr: 0x16338, symBinAddr: 0x10001A908, symSize: 0x44 }
  - { offsetInCU: 0x1DDCD, offset: 0x1DDCD, size: 0x8, addend: 0x0, symName: __ZNSt3__121__unwrap_and_dispatchB7v160006INS_10__overloadINS_20__move_backward_loopINS_17_ClassicAlgPolicyEEENS_23__move_backward_trivialEEEPPP8TreenodeSA_SA_Li0EEENS_4pairIT0_T2_EESC_T1_SD_, symObjAddr: 0x1637C, symBinAddr: 0x10001A94C, symSize: 0xB4 }
  - { offsetInCU: 0x1DEA1, offset: 0x1DEA1, size: 0x8, addend: 0x0, symName: __ZNSt3__128__copy_backward_trivial_implB7v160006IPP8TreenodeS3_EENS_4pairIPT_PT0_EES6_S6_S8_, symObjAddr: 0x16478, symBinAddr: 0x10001AA48, symSize: 0x94 }
  - { offsetInCU: 0x1DF09, offset: 0x1DF09, size: 0x8, addend: 0x0, symName: __ZNSt3__19make_pairB7v160006IRPPP8TreenodeS5_EENS_4pairINS_18__unwrap_ref_decayIT_E4typeENS7_IT0_E4typeEEEOS8_OSB_, symObjAddr: 0x1650C, symBinAddr: 0x10001AADC, symSize: 0x38 }
  - { offsetInCU: 0x1DF58, offset: 0x1DF58, size: 0x8, addend: 0x0, symName: __ZNSt3__119__allocate_at_leastB7v160006INS_9allocatorIPP8TreenodeEEEENS_19__allocation_resultINS_16allocator_traitsIT_E7pointerEEERS8_m, symObjAddr: 0x166FC, symBinAddr: 0x10001ACCC, symSize: 0x40 }
  - { offsetInCU: 0x1DF9B, offset: 0x1DF9B, size: 0x8, addend: 0x0, symName: __ZNSt3__112__to_addressB7v160006IP8TreenodeEEPT_S4_, symObjAddr: 0x170C4, symBinAddr: 0x10001B694, symSize: 0x14 }
  - { offsetInCU: 0x1DFD0, offset: 0x1DFD0, size: 0x8, addend: 0x0, symName: __ZNSt3__1eqB7v160006IPNS_12basic_stringIcNS_11char_traitsIcEENS_9allocatorIcEEEEEEbRKNS_11__wrap_iterIT_EESC_, symObjAddr: 0x1736C, symBinAddr: 0x10001B93C, symSize: 0x48 }
  - { offsetInCU: 0x1E013, offset: 0x1E013, size: 0x8, addend: 0x0, symName: __ZNSt3__1neB7v160006ERKNS_16__deque_iteratorIP8TreenodePS2_RS2_PS3_lLl512EEES8_, symObjAddr: 0x176F0, symBinAddr: 0x10001BCC0, symSize: 0x34 }
  - { offsetInCU: 0x1E050, offset: 0x1E050, size: 0x8, addend: 0x0, symName: __ZNSt3__1eqB7v160006ERKNS_16__deque_iteratorIP8TreenodePS2_RS2_PS3_lLl512EEES8_, symObjAddr: 0x17794, symBinAddr: 0x10001BD64, symSize: 0x30 }
  - { offsetInCU: 0x1E08D, offset: 0x1E08D, size: 0x8, addend: 0x0, symName: __ZNSt3__119__debug_db_insert_cB7v160006INS_13unordered_mapINS_12basic_stringIcNS_11char_traitsIcEENS_9allocatorIcEEEE7LexTypeNS_4hashIS7_EENS_8equal_toIS7_EENS5_INS_4pairIKS7_S8_EEEEEEEEvPT_, symObjAddr: 0x17BB4, symBinAddr: 0x10001C184, symSize: 0x10 }
  - { offsetInCU: 0x1E0BE, offset: 0x1E0BE, size: 0x8, addend: 0x0, symName: __ZNSt3__118__debug_db_erase_cB7v160006INS_12__hash_tableINS_17__hash_value_typeINS_12basic_stringIcNS_11char_traitsIcEENS_9allocatorIcEEEE7LexTypeEENS_22__unordered_map_hasherIS8_SA_NS_4hashIS8_EENS_8equal_toIS8_EELb1EEENS_21__unordered_map_equalIS8_SA_SF_SD_Lb1EEENS6_ISA_EEEEEEvPT_, symObjAddr: 0x182E8, symBinAddr: 0x10001C8B8, symSize: 0x10 }
  - { offsetInCU: 0x1E0EF, offset: 0x1E0EF, size: 0x8, addend: 0x0, symName: __ZNSt3__119__debug_db_insert_cB7v160006INS_13unordered_mapI7LexTypeNS_12basic_stringIcNS_11char_traitsIcEENS_9allocatorIcEEEENS_4hashIS2_EENS_8equal_toIS2_EENS6_INS_4pairIKS2_S8_EEEEEEEEvPT_, symObjAddr: 0x18428, symBinAddr: 0x10001C9F8, symSize: 0x10 }
  - { offsetInCU: 0x1E120, offset: 0x1E120, size: 0x8, addend: 0x0, symName: __ZNSt3__118__debug_db_erase_cB7v160006INS_12__hash_tableINS_17__hash_value_typeI7LexTypeNS_12basic_stringIcNS_11char_traitsIcEENS_9allocatorIcEEEEEENS_22__unordered_map_hasherIS3_SA_NS_4hashIS3_EENS_8equal_toIS3_EELb1EEENS_21__unordered_map_equalIS3_SA_SF_SD_Lb1EEENS7_ISA_EEEEEEvPT_, symObjAddr: 0x18B38, symBinAddr: 0x10001D108, symSize: 0x10 }
  - { offsetInCU: 0x1E151, offset: 0x1E151, size: 0x8, addend: 0x0, symName: __ZNSt3__119__debug_db_insert_cB7v160006INS_6vectorI7MyTokenNS_9allocatorIS2_EEEEEEvPT_, symObjAddr: 0x18CA4, symBinAddr: 0x10001D274, symSize: 0x10 }
  - { offsetInCU: 0x1E182, offset: 0x1E182, size: 0x8, addend: 0x0, symName: __ZNSt3__118__debug_db_erase_cB7v160006INS_6vectorI7MyTokenNS_9allocatorIS2_EEEEEEvPT_, symObjAddr: 0x18F68, symBinAddr: 0x10001D538, symSize: 0x10 }
  - { offsetInCU: 0x1E1B3, offset: 0x1E1B3, size: 0x8, addend: 0x0, symName: __ZNSt3__112__to_addressB7v160006I7MyTokenEEPT_S3_, symObjAddr: 0x19084, symBinAddr: 0x10001D654, symSize: 0x14 }
  - { offsetInCU: 0x1E1E8, offset: 0x1E1E8, size: 0x8, addend: 0x0, symName: __ZNSt3__1neB7v160006ERKNS_15__hash_iteratorIPNS_11__hash_nodeINS_17__hash_value_typeINS_12basic_stringIcNS_11char_traitsIcEENS_9allocatorIcEEEE7LexTypeEEPvEEEESG_, symObjAddr: 0x19434, symBinAddr: 0x10001DA04, symSize: 0x34 }
  - { offsetInCU: 0x1E225, offset: 0x1E225, size: 0x8, addend: 0x0, symName: __ZNSt3__1eqB7v160006ERKNS_15__hash_iteratorIPNS_11__hash_nodeINS_17__hash_value_typeINS_12basic_stringIcNS_11char_traitsIcEENS_9allocatorIcEEEE7LexTypeEEPvEEEESG_, symObjAddr: 0x19468, symBinAddr: 0x10001DA38, symSize: 0x30 }
  - { offsetInCU: 0x1E32E, offset: 0x1E32E, size: 0x8, addend: 0x0, symName: __ZNSt3__118__constexpr_strlenB7v160006EPKc, symObjAddr: 0x197C0, symBinAddr: 0x10001DD90, symSize: 0x24 }
  - { offsetInCU: 0x1E35A, offset: 0x1E35A, size: 0x8, addend: 0x0, symName: __ZNSt3__116__pad_and_outputB7v160006IcNS_11char_traitsIcEEEENS_19ostreambuf_iteratorIT_T0_EES6_PKS4_S8_S8_RNS_8ios_baseES4_, symObjAddr: 0x199EC, symBinAddr: 0x10001DFBC, symSize: 0x240 }
  - { offsetInCU: 0x1E429, offset: 0x1E429, size: 0x8, addend: 0x0, symName: __ZNSt3__112__to_addressB7v160006IcEEPT_S2_, symObjAddr: 0x19E64, symBinAddr: 0x10001E434, symSize: 0x14 }
  - { offsetInCU: 0x1E491, offset: 0x1E491, size: 0x8, addend: 0x0, symName: __ZNSt3__19use_facetB7v160006INS_5ctypeIcEEEERKT_RKNS_6localeE, symObjAddr: 0x1A06C, symBinAddr: 0x10001E63C, symSize: 0x2C }
  - { offsetInCU: 0x1E960, offset: 0x1E960, size: 0x8, addend: 0x0, symName: __ZNSt3__119__allocate_at_leastB7v160006INS_9allocatorI7MyTokenEEEENS_19__allocation_resultINS_16allocator_traitsIT_E7pointerEEERS6_m, symObjAddr: 0x1A85C, symBinAddr: 0x10001EE2C, symSize: 0x40 }
  - { offsetInCU: 0x1E9A3, offset: 0x1E9A3, size: 0x8, addend: 0x0, symName: __ZNSt3__142__uninitialized_allocator_move_if_noexceptB7v160006INS_9allocatorI7MyTokenEENS_16reverse_iteratorIPS2_EES6_S6_EET2_RT_T0_T1_S7_, symObjAddr: 0x1AA10, symBinAddr: 0x10001EFE0, symSize: 0x12C }
  - { offsetInCU: 0x1EA43, offset: 0x1EA43, size: 0x8, addend: 0x0, symName: __ZNSt3__14swapB7v160006IP7MyTokenEENS_9enable_ifIXaasr21is_move_constructibleIT_EE5valuesr18is_move_assignableIS4_EE5valueEvE4typeERS4_S7_, symObjAddr: 0x1AB88, symBinAddr: 0x10001F158, symSize: 0x3C }
  - { offsetInCU: 0x1EA94, offset: 0x1EA94, size: 0x8, addend: 0x0, symName: __ZNSt3__125__debug_db_invalidate_allB7v160006INS_6vectorI7MyTokenNS_9allocatorIS2_EEEEEEvPT_, symObjAddr: 0x1AC70, symBinAddr: 0x10001F240, symSize: 0x10 }
  - { offsetInCU: 0x1EAC5, offset: 0x1EAC5, size: 0x8, addend: 0x0, symName: __ZNSt3__122__make_exception_guardB7v160006INS_29_AllocatorDestroyRangeReverseINS_9allocatorI7MyTokenEENS_16reverse_iteratorIPS3_EEEEEENS_28__exception_guard_exceptionsIT_EESA_, symObjAddr: 0x1AC80, symBinAddr: 0x10001F250, symSize: 0x4C }
  - { offsetInCU: 0x1EAFB, offset: 0x1EAFB, size: 0x8, addend: 0x0, symName: __ZNSt3__1neB7v160006IP7MyTokenS2_EEbRKNS_16reverse_iteratorIT_EERKNS3_IT0_EE, symObjAddr: 0x1AD10, symBinAddr: 0x10001F2E0, symSize: 0x48 }
  - { offsetInCU: 0x1EB47, offset: 0x1EB47, size: 0x8, addend: 0x0, symName: __ZNSt3__112__to_addressB7v160006INS_16reverse_iteratorIP7MyTokenEEvEENS_5decayIDTclsr19__to_address_helperIT_EE6__callclsr3stdE7declvalIRKS6_EEEEE4typeES8_, symObjAddr: 0x1AD8C, symBinAddr: 0x10001F35C, symSize: 0x24 }
  - { offsetInCU: 0x1EBA6, offset: 0x1EBA6, size: 0x8, addend: 0x0, symName: __ZNSt3__119__allocator_destroyB7v160006INS_9allocatorI7MyTokenEENS_16reverse_iteratorINS4_IPS2_EEEES7_EEvRT_T0_T1_, symObjAddr: 0x1B108, symBinAddr: 0x10001F6D8, symSize: 0x70 }
  - { offsetInCU: 0x1EC0B, offset: 0x1EC0B, size: 0x8, addend: 0x0, symName: __ZNSt3__1neB7v160006INS_16reverse_iteratorIP7MyTokenEES4_EEbRKNS1_IT_EERKNS1_IT0_EE, symObjAddr: 0x1B1B4, symBinAddr: 0x10001F784, symSize: 0x60 }
  - { offsetInCU: 0x1EC57, offset: 0x1EC57, size: 0x8, addend: 0x0, symName: __ZNSt3__112__to_addressB7v160006INS_16reverse_iteratorINS1_IP7MyTokenEEEEvEENS_5decayIDTclsr19__to_address_helperIT_EE6__callclsr3stdE7declvalIRKS7_EEEEE4typeES9_, symObjAddr: 0x1B214, symBinAddr: 0x10001F7E4, symSize: 0x24 }
  - { offsetInCU: 0x1ECB6, offset: 0x1ECB6, size: 0x8, addend: 0x0, symName: __ZNSt3__115__debug_db_swapB7v160006INS_6vectorI7MyTokenNS_9allocatorIS2_EEEEEEvPT_S7_, symObjAddr: 0x1B84C, symBinAddr: 0x10001FE1C, symSize: 0x14 }
  - { offsetInCU: 0x1F41C, offset: 0x1F41C, size: 0x8, addend: 0x0, symName: __ZSt28__throw_bad_array_new_lengthB7v160006v, symObjAddr: 0x77E4, symBinAddr: 0x10000BDB4, symSize: 0x34 }
  - { offsetInCU: 0x1FE69, offset: 0x1FE69, size: 0x8, addend: 0x0, symName: _LexTypeMap, symObjAddr: 0xEB9B0, symBinAddr: 0x100028048, symSize: 0x0 }
  - { offsetInCU: 0x204DD, offset: 0x204DD, size: 0x8, addend: 0x0, symName: _sigLexTypeMap, symObjAddr: 0xEB9D8, symBinAddr: 0x100028070, symSize: 0x0 }
  - { offsetInCU: 0x204F2, offset: 0x204F2, size: 0x8, addend: 0x0, symName: _tokenList, symObjAddr: 0xEBA00, symBinAddr: 0x100028098, symSize: 0x0 }
  - { offsetInCU: 0x20766, offset: 0x20766, size: 0x8, addend: 0x0, symName: _srcAddr, symObjAddr: 0x1E1A0, symBinAddr: 0x100028000, symSize: 0x0 }
  - { offsetInCU: 0x2077B, offset: 0x2077B, size: 0x8, addend: 0x0, symName: _tokenAddr, symObjAddr: 0x1E1A8, symBinAddr: 0x100028008, symSize: 0x0 }
  - { offsetInCU: 0x20790, offset: 0x20790, size: 0x8, addend: 0x0, symName: _errorAddr, symObjAddr: 0x1E1B0, symBinAddr: 0x100028010, symSize: 0x0 }
  - { offsetInCU: 0x207A5, offset: 0x207A5, size: 0x8, addend: 0x0, symName: _treeAddr, symObjAddr: 0x1E1B8, symBinAddr: 0x100028018, symSize: 0x0 }
  - { offsetInCU: 0x207BC, offset: 0x207BC, size: 0x8, addend: 0x0, symName: __ZL12NodeKind_str, symObjAddr: 0xEBA18, symBinAddr: 0x1000280B0, symSize: 0x0 }
  - { offsetInCU: 0x207EB, offset: 0x207EB, size: 0x8, addend: 0x0, symName: __ZL8Deck_str, symObjAddr: 0xEBAF0, symBinAddr: 0x100028188, symSize: 0x0 }
  - { offsetInCU: 0x20814, offset: 0x20814, size: 0x8, addend: 0x0, symName: __ZL9StmtK_str, symObjAddr: 0xEBB68, symBinAddr: 0x100028200, symSize: 0x0 }
  - { offsetInCU: 0x2083D, offset: 0x2083D, size: 0x8, addend: 0x0, symName: __ZL8ExpK_str, symObjAddr: 0xEBC10, symBinAddr: 0x1000282A8, symSize: 0x0 }
  - { offsetInCU: 0x20866, offset: 0x20866, size: 0x8, addend: 0x0, symName: __ZL11LexType_str, symObjAddr: 0xEBC58, symBinAddr: 0x1000282F0, symSize: 0x0 }
  - { offsetInCU: 0x21002, offset: 0x21002, size: 0x8, addend: 0x0, symName: __ZNKSt3__111__enum_hashI7LexTypeLb1EEclB7v160006ES1_, symObjAddr: 0x9510, symBinAddr: 0x10000DAE0, symSize: 0x2C }
  - { offsetInCU: 0x2163D, offset: 0x2163D, size: 0x8, addend: 0x0, symName: __ZNSt3__16vectorINS_12basic_stringIcNS_11char_traitsIcEENS_9allocatorIcEEEENS4_IS6_EEE26__swap_out_circular_bufferERNS_14__split_bufferIS6_RS7_EE, symObjAddr: 0xC8A0, symBinAddr: 0x100010E70, symSize: 0x118 }
  - { offsetInCU: 0x219A0, offset: 0x219A0, size: 0x8, addend: 0x0, symName: __ZNSt3__16vectorI7MyTokenNS_9allocatorIS1_EEE26__swap_out_circular_bufferERNS_14__split_bufferIS1_RS3_EE, symObjAddr: 0x1A4F4, symBinAddr: 0x10001EAC4, symSize: 0x118 }
  - { offsetInCU: 0x23D21, offset: 0x23D21, size: 0x8, addend: 0x0, symName: __ZNSt3__113unordered_mapINS_12basic_stringIcNS_11char_traitsIcEENS_9allocatorIcEEEE7LexTypeNS_4hashIS6_EENS_8equal_toIS6_EENS4_INS_4pairIKS6_S7_EEEEEC1B7v160006Ev, symObjAddr: 0x0, symBinAddr: 0x1000045D0, symSize: 0x2C }
  - { offsetInCU: 0x23D4B, offset: 0x23D4B, size: 0x8, addend: 0x0, symName: __ZNSt3__113unordered_mapINS_12basic_stringIcNS_11char_traitsIcEENS_9allocatorIcEEEE7LexTypeNS_4hashIS6_EENS_8equal_toIS6_EENS4_INS_4pairIKS6_S7_EEEEED1B7v160006Ev, symObjAddr: 0x2C, symBinAddr: 0x1000045FC, symSize: 0x2C }
  - { offsetInCU: 0x23D75, offset: 0x23D75, size: 0x8, addend: 0x0, symName: __ZNSt3__113unordered_mapI7LexTypeNS_12basic_stringIcNS_11char_traitsIcEENS_9allocatorIcEEEENS_4hashIS1_EENS_8equal_toIS1_EENS5_INS_4pairIKS1_S7_EEEEEC1B7v160006Ev, symObjAddr: 0x58, symBinAddr: 0x100004628, symSize: 0x2C }
  - { offsetInCU: 0x23D9F, offset: 0x23D9F, size: 0x8, addend: 0x0, symName: __ZNSt3__113unordered_mapI7LexTypeNS_12basic_stringIcNS_11char_traitsIcEENS_9allocatorIcEEEENS_4hashIS1_EENS_8equal_toIS1_EENS5_INS_4pairIKS1_S7_EEEEED1B7v160006Ev, symObjAddr: 0x84, symBinAddr: 0x100004654, symSize: 0x2C }
  - { offsetInCU: 0x23DC9, offset: 0x23DC9, size: 0x8, addend: 0x0, symName: __ZNSt3__16vectorI7MyTokenNS_9allocatorIS1_EEEC1B7v160006Ev, symObjAddr: 0xB0, symBinAddr: 0x100004680, symSize: 0x2C }
  - { offsetInCU: 0x23DF3, offset: 0x23DF3, size: 0x8, addend: 0x0, symName: __ZNSt3__16vectorI7MyTokenNS_9allocatorIS1_EEED1B7v160006Ev, symObjAddr: 0xDC, symBinAddr: 0x1000046AC, symSize: 0x2C }
  - { offsetInCU: 0x23E1D, offset: 0x23E1D, size: 0x8, addend: 0x0, symName: __ZN7MyTokenC2EiNSt3__112basic_stringIcNS0_11char_traitsIcEENS0_9allocatorIcEEEE7LexType, symObjAddr: 0x108, symBinAddr: 0x1000046D8, symSize: 0x340 }
  - { offsetInCU: 0x23E73, offset: 0x23E73, size: 0x8, addend: 0x0, symName: __ZNSt3__112basic_stringIcNS_11char_traitsIcEENS_9allocatorIcEEEC1B7v160006Ev, symObjAddr: 0x448, symBinAddr: 0x100004A18, symSize: 0x2C }
  - { offsetInCU: 0x23E9D, offset: 0x23E9D, size: 0x8, addend: 0x0, symName: __ZNSt3__113unordered_mapINS_12basic_stringIcNS_11char_traitsIcEENS_9allocatorIcEEEE7LexTypeNS_4hashIS6_EENS_8equal_toIS6_EENS4_INS_4pairIKS6_S7_EEEEE4findB7v160006ERSD_, symObjAddr: 0x4A4, symBinAddr: 0x100004A74, symSize: 0x40 }
  - { offsetInCU: 0x23ED2, offset: 0x23ED2, size: 0x8, addend: 0x0, symName: __ZNSt3__113unordered_mapINS_12basic_stringIcNS_11char_traitsIcEENS_9allocatorIcEEEE7LexTypeNS_4hashIS6_EENS_8equal_toIS6_EENS4_INS_4pairIKS6_S7_EEEEE3endB7v160006Ev, symObjAddr: 0x4E4, symBinAddr: 0x100004AB4, symSize: 0x38 }
  - { offsetInCU: 0x23EF8, offset: 0x23EF8, size: 0x8, addend: 0x0, symName: __ZNKSt3__119__hash_map_iteratorINS_15__hash_iteratorIPNS_11__hash_nodeINS_17__hash_value_typeINS_12basic_stringIcNS_11char_traitsIcEENS_9allocatorIcEEEE7LexTypeEEPvEEEEEptB7v160006Ev, symObjAddr: 0x51C, symBinAddr: 0x100004AEC, symSize: 0x2C }
  - { offsetInCU: 0x23F1E, offset: 0x23F1E, size: 0x8, addend: 0x0, symName: __ZNSt3__113unordered_mapI7LexTypeNS_12basic_stringIcNS_11char_traitsIcEENS_9allocatorIcEEEENS_4hashIS1_EENS_8equal_toIS1_EENS5_INS_4pairIKS1_S7_EEEEE4findB7v160006ERSD_, symObjAddr: 0x548, symBinAddr: 0x100004B18, symSize: 0x40 }
  - { offsetInCU: 0x23F53, offset: 0x23F53, size: 0x8, addend: 0x0, symName: __ZNKSt3__119__hash_map_iteratorINS_15__hash_iteratorIPNS_11__hash_nodeINS_17__hash_value_typeI7LexTypeNS_12basic_stringIcNS_11char_traitsIcEENS_9allocatorIcEEEEEEPvEEEEEptB7v160006Ev, symObjAddr: 0x588, symBinAddr: 0x100004B58, symSize: 0x2C }
  - { offsetInCU: 0x23F79, offset: 0x23F79, size: 0x8, addend: 0x0, symName: __ZN7MyTokenC1EiNSt3__112basic_stringIcNS0_11char_traitsIcEENS0_9allocatorIcEEEE7LexType, symObjAddr: 0x5B4, symBinAddr: 0x100004B84, symSize: 0x44 }
  - { offsetInCU: 0x23FCE, offset: 0x23FCE, size: 0x8, addend: 0x0, symName: __Z15lexicalAnalysisv, symObjAddr: 0x5F8, symBinAddr: 0x100004BC8, symSize: 0xDBC }
  - { offsetInCU: 0x241D1, offset: 0x241D1, size: 0x8, addend: 0x0, symName: __ZNSt3__113basic_ostreamIcNS_11char_traitsIcEEElsB7v160006EPFRS3_S4_E, symObjAddr: 0x13FC, symBinAddr: 0x1000059CC, symSize: 0x2C }
  - { offsetInCU: 0x2420B, offset: 0x2420B, size: 0x8, addend: 0x0, symName: __ZNSt3__112basic_stringIcNS_11char_traitsIcEENS_9allocatorIcEEEC1B7v160006IDnEEPKc, symObjAddr: 0x1480, symBinAddr: 0x100005A50, symSize: 0x34 }
  - { offsetInCU: 0x24249, offset: 0x24249, size: 0x8, addend: 0x0, symName: __ZL8isLetterc, symObjAddr: 0x14B4, symBinAddr: 0x100005A84, symSize: 0x84 }
  - { offsetInCU: 0x24276, offset: 0x24276, size: 0x8, addend: 0x0, symName: __ZNSt3__112basic_stringIcNS_11char_traitsIcEENS_9allocatorIcEEEaSB7v160006EPKc, symObjAddr: 0x1538, symBinAddr: 0x100005B08, symSize: 0x2C }
  - { offsetInCU: 0x242AB, offset: 0x242AB, size: 0x8, addend: 0x0, symName: __ZNSt3__112basic_stringIcNS_11char_traitsIcEENS_9allocatorIcEEEpLB7v160006Ec, symObjAddr: 0x1564, symBinAddr: 0x100005B34, symSize: 0x34 }
  - { offsetInCU: 0x242E0, offset: 0x242E0, size: 0x8, addend: 0x0, symName: __ZL7isDigitc, symObjAddr: 0x1598, symBinAddr: 0x100005B68, symSize: 0x48 }
  - { offsetInCU: 0x2430D, offset: 0x2430D, size: 0x8, addend: 0x0, symName: __ZNSt3__16vectorI7MyTokenNS_9allocatorIS1_EEE9push_backB7v160006ERKS1_, symObjAddr: 0x15E0, symBinAddr: 0x100005BB0, symSize: 0x6C }
  - { offsetInCU: 0x24344, offset: 0x24344, size: 0x8, addend: 0x0, symName: __ZN7MyTokenD1Ev, symObjAddr: 0x164C, symBinAddr: 0x100005C1C, symSize: 0x2C }
  - { offsetInCU: 0x24370, offset: 0x24370, size: 0x8, addend: 0x0, symName: __ZNSt3__112basic_stringIcNS_11char_traitsIcEENS_9allocatorIcEEE5beginB7v160006Ev, symObjAddr: 0x1678, symBinAddr: 0x100005C48, symSize: 0x4C }
  - { offsetInCU: 0x24396, offset: 0x24396, size: 0x8, addend: 0x0, symName: __ZNSt3__112basic_stringIcNS_11char_traitsIcEENS_9allocatorIcEEE3endB7v160006Ev, symObjAddr: 0x16C4, symBinAddr: 0x100005C94, symSize: 0x54 }
  - { offsetInCU: 0x243BC, offset: 0x243BC, size: 0x8, addend: 0x0, symName: __ZNKSt3__111__wrap_iterIPcEdeB7v160006Ev, symObjAddr: 0x174C, symBinAddr: 0x100005D1C, symSize: 0x18 }
  - { offsetInCU: 0x243E2, offset: 0x243E2, size: 0x8, addend: 0x0, symName: __ZNSt3__111__wrap_iterIPcEppB7v160006Ev, symObjAddr: 0x1764, symBinAddr: 0x100005D34, symSize: 0x20 }
  - { offsetInCU: 0x24408, offset: 0x24408, size: 0x8, addend: 0x0, symName: __ZL10isOperatorc, symObjAddr: 0x1784, symBinAddr: 0x100005D54, symSize: 0xB8 }
  - { offsetInCU: 0x24435, offset: 0x24435, size: 0x8, addend: 0x0, symName: __ZL11isSeparatorc, symObjAddr: 0x183C, symBinAddr: 0x100005E0C, symSize: 0x144 }
  - { offsetInCU: 0x24462, offset: 0x24462, size: 0x8, addend: 0x0, symName: __ZL7isBlankc, symObjAddr: 0x1980, symBinAddr: 0x100005F50, symSize: 0x80 }
  - { offsetInCU: 0x2448E, offset: 0x2448E, size: 0x8, addend: 0x0, symName: __Z13printErrorMsgv, symObjAddr: 0x1A00, symBinAddr: 0x100005FD0, symSize: 0x21C }
  - { offsetInCU: 0x245BF, offset: 0x245BF, size: 0x8, addend: 0x0, symName: __ZNSt3__114basic_ofstreamIcNS_11char_traitsIcEEEC1EPKcj, symObjAddr: 0x1C1C, symBinAddr: 0x1000061EC, symSize: 0x16C }
  - { offsetInCU: 0x24609, offset: 0x24609, size: 0x8, addend: 0x0, symName: __ZNSt3__16vectorI7MyTokenNS_9allocatorIS1_EEE5beginB7v160006Ev, symObjAddr: 0x1D88, symBinAddr: 0x100006358, symSize: 0x30 }
  - { offsetInCU: 0x24631, offset: 0x24631, size: 0x8, addend: 0x0, symName: __ZNSt3__16vectorI7MyTokenNS_9allocatorIS1_EEE3endB7v160006Ev, symObjAddr: 0x1DB8, symBinAddr: 0x100006388, symSize: 0x30 }
  - { offsetInCU: 0x24659, offset: 0x24659, size: 0x8, addend: 0x0, symName: __ZNKSt3__111__wrap_iterIP7MyTokenEdeB7v160006Ev, symObjAddr: 0x1E1C, symBinAddr: 0x1000063EC, symSize: 0x18 }
  - { offsetInCU: 0x2467F, offset: 0x2467F, size: 0x8, addend: 0x0, symName: __ZN7MyTokenC1ERKS_, symObjAddr: 0x1E34, symBinAddr: 0x100006404, symSize: 0x34 }
  - { offsetInCU: 0x246B4, offset: 0x246B4, size: 0x8, addend: 0x0, symName: __ZNSt3__111__wrap_iterIP7MyTokenEppB7v160006Ev, symObjAddr: 0x1EE8, symBinAddr: 0x1000064B8, symSize: 0x20 }
  - { offsetInCU: 0x246DA, offset: 0x246DA, size: 0x8, addend: 0x0, symName: __ZNSt3__114basic_ofstreamIcNS_11char_traitsIcEEE5closeEv, symObjAddr: 0x1F08, symBinAddr: 0x1000064D8, symSize: 0x58 }
  - { offsetInCU: 0x24708, offset: 0x24708, size: 0x8, addend: 0x0, symName: __ZNSt3__114basic_ofstreamIcNS_11char_traitsIcEEED1Ev, symObjAddr: 0x1F60, symBinAddr: 0x100006530, symSize: 0x40 }
  - { offsetInCU: 0x24734, offset: 0x24734, size: 0x8, addend: 0x0, symName: __Z14printTokenListv, symObjAddr: 0x1FA0, symBinAddr: 0x100006570, symSize: 0x22C }
  - { offsetInCU: 0x247AE, offset: 0x247AE, size: 0x8, addend: 0x0, symName: __Z8lexicialv, symObjAddr: 0x21CC, symBinAddr: 0x10000679C, symSize: 0x70 }
  - { offsetInCU: 0x247C9, offset: 0x247C9, size: 0x8, addend: 0x0, symName: __ZL4initv, symObjAddr: 0x223C, symBinAddr: 0x10000680C, symSize: 0x2344 }
  - { offsetInCU: 0x247E3, offset: 0x247E3, size: 0x8, addend: 0x0, symName: _main, symObjAddr: 0x4580, symBinAddr: 0x100008B50, symSize: 0xE0 }
  - { offsetInCU: 0x2481E, offset: 0x2481E, size: 0x8, addend: 0x0, symName: __ZNSt3__16vectorI7MyTokenNS_9allocatorIS1_EEEC1B7v160006EOS4_, symObjAddr: 0x4660, symBinAddr: 0x100008C30, symSize: 0x34 }
  - { offsetInCU: 0x24F17, offset: 0x24F17, size: 0x8, addend: 0x0, symName: __ZN6ParserC1ENSt3__16vectorI7MyTokenNS0_9allocatorIS2_EEEE, symObjAddr: 0x4694, symBinAddr: 0x100008C64, symSize: 0x34 }
  - { offsetInCU: 0x24F51, offset: 0x24F51, size: 0x8, addend: 0x0, symName: __ZN6Parser5parseEv, symObjAddr: 0x46C8, symBinAddr: 0x100008C98, symSize: 0x2C }
  - { offsetInCU: 0x24F77, offset: 0x24F77, size: 0x8, addend: 0x0, symName: __ZN6Parser9printTreeERKNSt3__110unique_ptrI8TreenodeNS0_14default_deleteIS2_EEEE, symObjAddr: 0x46F4, symBinAddr: 0x100008CC4, symSize: 0x8C0 }
  - { offsetInCU: 0x25076, offset: 0x25076, size: 0x8, addend: 0x0, symName: __ZNSt3__110unique_ptrI8TreenodeNS_14default_deleteIS1_EEED1B7v160006Ev, symObjAddr: 0x4FB4, symBinAddr: 0x100009584, symSize: 0x2C }
  - { offsetInCU: 0x250A0, offset: 0x250A0, size: 0x8, addend: 0x0, symName: __ZN6ParserD1Ev, symObjAddr: 0x4FE0, symBinAddr: 0x1000095B0, symSize: 0x2C }
  - { offsetInCU: 0x250CD, offset: 0x250CD, size: 0x8, addend: 0x0, symName: __ZN7MyTokenD2Ev, symObjAddr: 0x500C, symBinAddr: 0x1000095DC, symSize: 0x3C }
  - { offsetInCU: 0x250F9, offset: 0x250F9, size: 0x8, addend: 0x0, symName: __ZNKSt3__111__wrap_iterIPcE4baseB7v160006Ev, symObjAddr: 0x5090, symBinAddr: 0x100009660, symSize: 0x18 }
  - { offsetInCU: 0x2511F, offset: 0x2511F, size: 0x8, addend: 0x0, symName: __ZNKSt3__111__wrap_iterIP7MyTokenE4baseB7v160006Ev, symObjAddr: 0x50F0, symBinAddr: 0x1000096C0, symSize: 0x18 }
  - { offsetInCU: 0x25145, offset: 0x25145, size: 0x8, addend: 0x0, symName: __ZN7MyTokenC2ERKS_, symObjAddr: 0x5108, symBinAddr: 0x1000096D8, symSize: 0x94 }
  - { offsetInCU: 0x2517A, offset: 0x2517A, size: 0x8, addend: 0x0, symName: __ZNSt3__114basic_ofstreamIcNS_11char_traitsIcEEED2Ev, symObjAddr: 0x519C, symBinAddr: 0x10000976C, symSize: 0x64 }
  - { offsetInCU: 0x251B4, offset: 0x251B4, size: 0x8, addend: 0x0, symName: __ZTv0_n24_NSt3__114basic_ofstreamIcNS_11char_traitsIcEEED1Ev, symObjAddr: 0x5200, symBinAddr: 0x1000097D0, symSize: 0x28 }
  - { offsetInCU: 0x251CB, offset: 0x251CB, size: 0x8, addend: 0x0, symName: __ZNSt3__113unordered_mapINS_12basic_stringIcNS_11char_traitsIcEENS_9allocatorIcEEEE7LexTypeNS_4hashIS6_EENS_8equal_toIS6_EENS4_INS_4pairIKS6_S7_EEEEE6insertB7v160006EOSE_, symObjAddr: 0x5228, symBinAddr: 0x1000097F8, symSize: 0x4C }
  - { offsetInCU: 0x25211, offset: 0x25211, size: 0x8, addend: 0x0, symName: __ZNSt3__14pairIKNS_12basic_stringIcNS_11char_traitsIcEENS_9allocatorIcEEEE7LexTypeEC1B7v160006IRA8_KcS8_LPv0EEEOT_OT0_, symObjAddr: 0x5274, symBinAddr: 0x100009844, symSize: 0x3C }
  - { offsetInCU: 0x2526F, offset: 0x2526F, size: 0x8, addend: 0x0, symName: __ZNSt3__14pairIKNS_12basic_stringIcNS_11char_traitsIcEENS_9allocatorIcEEEE7LexTypeED1Ev, symObjAddr: 0x52B0, symBinAddr: 0x100009880, symSize: 0x2C }
  - { offsetInCU: 0x252B4, offset: 0x252B4, size: 0x8, addend: 0x0, symName: __ZNSt3__14pairIKNS_12basic_stringIcNS_11char_traitsIcEENS_9allocatorIcEEEE7LexTypeEC1B7v160006IRA5_KcS8_LPv0EEEOT_OT0_, symObjAddr: 0x52DC, symBinAddr: 0x1000098AC, symSize: 0x3C }
  - { offsetInCU: 0x2532B, offset: 0x2532B, size: 0x8, addend: 0x0, symName: __ZNSt3__14pairIKNS_12basic_stringIcNS_11char_traitsIcEENS_9allocatorIcEEEE7LexTypeEC1B7v160006IRA4_KcS8_LPv0EEEOT_OT0_, symObjAddr: 0x5318, symBinAddr: 0x1000098E8, symSize: 0x3C }
  - { offsetInCU: 0x253A2, offset: 0x253A2, size: 0x8, addend: 0x0, symName: __ZNSt3__14pairIKNS_12basic_stringIcNS_11char_traitsIcEENS_9allocatorIcEEEE7LexTypeEC1B7v160006IRA10_KcS8_LPv0EEEOT_OT0_, symObjAddr: 0x5354, symBinAddr: 0x100009924, symSize: 0x3C }
  - { offsetInCU: 0x25419, offset: 0x25419, size: 0x8, addend: 0x0, symName: __ZNSt3__14pairIKNS_12basic_stringIcNS_11char_traitsIcEENS_9allocatorIcEEEE7LexTypeEC1B7v160006IRA6_KcS8_LPv0EEEOT_OT0_, symObjAddr: 0x5390, symBinAddr: 0x100009960, symSize: 0x3C }
  - { offsetInCU: 0x25490, offset: 0x25490, size: 0x8, addend: 0x0, symName: __ZNSt3__14pairIKNS_12basic_stringIcNS_11char_traitsIcEENS_9allocatorIcEEEE7LexTypeEC1B7v160006IRA3_KcS8_LPv0EEEOT_OT0_, symObjAddr: 0x53CC, symBinAddr: 0x10000999C, symSize: 0x3C }
  - { offsetInCU: 0x25507, offset: 0x25507, size: 0x8, addend: 0x0, symName: __ZNSt3__14pairIKNS_12basic_stringIcNS_11char_traitsIcEENS_9allocatorIcEEEE7LexTypeEC1B7v160006IRA7_KcS8_LPv0EEEOT_OT0_, symObjAddr: 0x5408, symBinAddr: 0x1000099D8, symSize: 0x3C }
  - { offsetInCU: 0x25565, offset: 0x25565, size: 0x8, addend: 0x0, symName: __ZNSt3__113unordered_mapI7LexTypeNS_12basic_stringIcNS_11char_traitsIcEENS_9allocatorIcEEEENS_4hashIS1_EENS_8equal_toIS1_EENS5_INS_4pairIKS1_S7_EEEEE6insertB7v160006EOSE_, symObjAddr: 0x5444, symBinAddr: 0x100009A14, symSize: 0x4C }
  - { offsetInCU: 0x2559A, offset: 0x2559A, size: 0x8, addend: 0x0, symName: __ZNSt3__14pairIK7LexTypeNS_12basic_stringIcNS_11char_traitsIcEENS_9allocatorIcEEEEEC1B7v160006IS1_RA8_KcLPv0EEEOT_OT0_, symObjAddr: 0x5490, symBinAddr: 0x100009A60, symSize: 0x3C }
  - { offsetInCU: 0x255F8, offset: 0x255F8, size: 0x8, addend: 0x0, symName: __ZNSt3__14pairIK7LexTypeNS_12basic_stringIcNS_11char_traitsIcEENS_9allocatorIcEEEEED1Ev, symObjAddr: 0x54CC, symBinAddr: 0x100009A9C, symSize: 0x2C }
  - { offsetInCU: 0x25624, offset: 0x25624, size: 0x8, addend: 0x0, symName: __ZNSt3__14pairIK7LexTypeNS_12basic_stringIcNS_11char_traitsIcEENS_9allocatorIcEEEEEC1B7v160006IS1_RA6_KcLPv0EEEOT_OT0_, symObjAddr: 0x54F8, symBinAddr: 0x100009AC8, symSize: 0x3C }
  - { offsetInCU: 0x25682, offset: 0x25682, size: 0x8, addend: 0x0, symName: __ZNSt3__14pairIK7LexTypeNS_12basic_stringIcNS_11char_traitsIcEENS_9allocatorIcEEEEEC1B7v160006IS1_RA10_KcLPv0EEEOT_OT0_, symObjAddr: 0x5534, symBinAddr: 0x100009B04, symSize: 0x3C }
  - { offsetInCU: 0x256E0, offset: 0x256E0, size: 0x8, addend: 0x0, symName: __ZNSt3__14pairIK7LexTypeNS_12basic_stringIcNS_11char_traitsIcEENS_9allocatorIcEEEEEC1B7v160006IS1_RA5_KcLPv0EEEOT_OT0_, symObjAddr: 0x5570, symBinAddr: 0x100009B40, symSize: 0x3C }
  - { offsetInCU: 0x2573E, offset: 0x2573E, size: 0x8, addend: 0x0, symName: __ZNSt3__14pairIK7LexTypeNS_12basic_stringIcNS_11char_traitsIcEENS_9allocatorIcEEEEEC1B7v160006IS1_RA4_KcLPv0EEEOT_OT0_, symObjAddr: 0x55AC, symBinAddr: 0x100009B7C, symSize: 0x3C }
  - { offsetInCU: 0x2579C, offset: 0x2579C, size: 0x8, addend: 0x0, symName: __ZNSt3__14pairIK7LexTypeNS_12basic_stringIcNS_11char_traitsIcEENS_9allocatorIcEEEEEC1B7v160006IS1_RA3_KcLPv0EEEOT_OT0_, symObjAddr: 0x55E8, symBinAddr: 0x100009BB8, symSize: 0x3C }
  - { offsetInCU: 0x257FA, offset: 0x257FA, size: 0x8, addend: 0x0, symName: __ZNSt3__14pairIK7LexTypeNS_12basic_stringIcNS_11char_traitsIcEENS_9allocatorIcEEEEEC1B7v160006IS1_RA7_KcLPv0EEEOT_OT0_, symObjAddr: 0x5624, symBinAddr: 0x100009BF4, symSize: 0x3C }
  - { offsetInCU: 0x25871, offset: 0x25871, size: 0x8, addend: 0x0, symName: __ZNSt3__14pairIKNS_12basic_stringIcNS_11char_traitsIcEENS_9allocatorIcEEEE7LexTypeEC1B7v160006IRA2_KcS8_LPv0EEEOT_OT0_, symObjAddr: 0x5660, symBinAddr: 0x100009C30, symSize: 0x3C }
  - { offsetInCU: 0x258CF, offset: 0x258CF, size: 0x8, addend: 0x0, symName: __ZNSt3__112__hash_tableINS_17__hash_value_typeINS_12basic_stringIcNS_11char_traitsIcEENS_9allocatorIcEEEE7LexTypeEENS_22__unordered_map_hasherIS7_S9_NS_4hashIS7_EENS_8equal_toIS7_EELb1EEENS_21__unordered_map_equalIS7_S9_SE_SC_Lb1EEENS5_IS9_EEE15__insert_uniqueB7v160006EONS_4pairIKS7_S8_EE, symObjAddr: 0x569C, symBinAddr: 0x100009C6C, symSize: 0x50 }
  - { offsetInCU: 0x25904, offset: 0x25904, size: 0x8, addend: 0x0, symName: __ZNSt3__14pairINS_19__hash_map_iteratorINS_15__hash_iteratorIPNS_11__hash_nodeINS_17__hash_value_typeINS_12basic_stringIcNS_11char_traitsIcEENS_9allocatorIcEEEE7LexTypeEEPvEEEEEEbEC1B7v160006ISG_bLSD_0EEEONS0_IT_T0_EE, symObjAddr: 0x56EC, symBinAddr: 0x100009CBC, symSize: 0x34 }
  - { offsetInCU: 0x25955, offset: 0x25955, size: 0x8, addend: 0x0, symName: __ZNSt3__112__hash_tableINS_17__hash_value_typeINS_12basic_stringIcNS_11char_traitsIcEENS_9allocatorIcEEEE7LexTypeEENS_22__unordered_map_hasherIS7_S9_NS_4hashIS7_EENS_8equal_toIS7_EELb1EEENS_21__unordered_map_equalIS7_S9_SE_SC_Lb1EEENS5_IS9_EEE25__emplace_unique_key_argsIS7_JNS_4pairIKS7_S8_EEEEENSL_INS_15__hash_iteratorIPNS_11__hash_nodeIS9_PvEEEEbEERKT_DpOT0_, symObjAddr: 0x5720, symBinAddr: 0x100009CF0, symSize: 0x4C0 }
  - { offsetInCU: 0x25A35, offset: 0x25A35, size: 0x8, addend: 0x0, symName: __ZNSt3__122__hash_key_value_typesINS_17__hash_value_typeINS_12basic_stringIcNS_11char_traitsIcEENS_9allocatorIcEEEE7LexTypeEEE9__get_keyB7v160006ERKNS_4pairIKS7_S8_EE, symObjAddr: 0x5BE0, symBinAddr: 0x10000A1B0, symSize: 0x14 }
  - { offsetInCU: 0x25A58, offset: 0x25A58, size: 0x8, addend: 0x0, symName: __ZNSt3__112__hash_tableINS_17__hash_value_typeINS_12basic_stringIcNS_11char_traitsIcEENS_9allocatorIcEEEE7LexTypeEENS_22__unordered_map_hasherIS7_S9_NS_4hashIS7_EENS_8equal_toIS7_EELb1EEENS_21__unordered_map_equalIS7_S9_SE_SC_Lb1EEENS5_IS9_EEE13hash_functionB7v160006Ev, symObjAddr: 0x5BF4, symBinAddr: 0x10000A1C4, symSize: 0x28 }
  - { offsetInCU: 0x25A7E, offset: 0x25A7E, size: 0x8, addend: 0x0, symName: __ZNKSt3__122__unordered_map_hasherINS_12basic_stringIcNS_11char_traitsIcEENS_9allocatorIcEEEENS_17__hash_value_typeIS6_7LexTypeEENS_4hashIS6_EENS_8equal_toIS6_EELb1EEclB7v160006ERKS6_, symObjAddr: 0x5C1C, symBinAddr: 0x10000A1EC, symSize: 0x2C }
  - { offsetInCU: 0x25AB3, offset: 0x25AB3, size: 0x8, addend: 0x0, symName: __ZNKSt3__112__hash_tableINS_17__hash_value_typeINS_12basic_stringIcNS_11char_traitsIcEENS_9allocatorIcEEEE7LexTypeEENS_22__unordered_map_hasherIS7_S9_NS_4hashIS7_EENS_8equal_toIS7_EELb1EEENS_21__unordered_map_equalIS7_S9_SE_SC_Lb1EEENS5_IS9_EEE12bucket_countB7v160006Ev, symObjAddr: 0x5C48, symBinAddr: 0x10000A218, symSize: 0x28 }
  - { offsetInCU: 0x25AD9, offset: 0x25AD9, size: 0x8, addend: 0x0, symName: __ZNKSt3__110unique_ptrIA_PNS_16__hash_node_baseIPNS_11__hash_nodeINS_17__hash_value_typeINS_12basic_stringIcNS_11char_traitsIcEENS_9allocatorIcEEEE7LexTypeEEPvEEEENS_25__bucket_list_deallocatorINS7_ISG_EEEEEixB7v160006Em, symObjAddr: 0x5D08, symBinAddr: 0x10000A2D8, symSize: 0x34 }
  - { offsetInCU: 0x25B0E, offset: 0x25B0E, size: 0x8, addend: 0x0, symName: __ZNKSt3__116__hash_node_baseIPNS_11__hash_nodeINS_17__hash_value_typeINS_12basic_stringIcNS_11char_traitsIcEENS_9allocatorIcEEEE7LexTypeEEPvEEE6__hashB7v160006Ev, symObjAddr: 0x5D3C, symBinAddr: 0x10000A30C, symSize: 0x18 }
  - { offsetInCU: 0x25B34, offset: 0x25B34, size: 0x8, addend: 0x0, symName: __ZNSt3__112__hash_tableINS_17__hash_value_typeINS_12basic_stringIcNS_11char_traitsIcEENS_9allocatorIcEEEE7LexTypeEENS_22__unordered_map_hasherIS7_S9_NS_4hashIS7_EENS_8equal_toIS7_EELb1EEENS_21__unordered_map_equalIS7_S9_SE_SC_Lb1EEENS5_IS9_EEE6key_eqB7v160006Ev, symObjAddr: 0x5D54, symBinAddr: 0x10000A324, symSize: 0x28 }
  - { offsetInCU: 0x25B5A, offset: 0x25B5A, size: 0x8, addend: 0x0, symName: __ZNKSt3__121__unordered_map_equalINS_12basic_stringIcNS_11char_traitsIcEENS_9allocatorIcEEEENS_17__hash_value_typeIS6_7LexTypeEENS_8equal_toIS6_EENS_4hashIS6_EELb1EEclB7v160006ERKS9_RKS6_, symObjAddr: 0x5D7C, symBinAddr: 0x10000A34C, symSize: 0x48 }
  - { offsetInCU: 0x25B9E, offset: 0x25B9E, size: 0x8, addend: 0x0, symName: __ZNSt3__116__hash_node_baseIPNS_11__hash_nodeINS_17__hash_value_typeINS_12basic_stringIcNS_11char_traitsIcEENS_9allocatorIcEEEE7LexTypeEEPvEEE8__upcastB7v160006Ev, symObjAddr: 0x5DC4, symBinAddr: 0x10000A394, symSize: 0x24 }
  - { offsetInCU: 0x25BC4, offset: 0x25BC4, size: 0x8, addend: 0x0, symName: __ZNSt3__112__hash_tableINS_17__hash_value_typeINS_12basic_stringIcNS_11char_traitsIcEENS_9allocatorIcEEEE7LexTypeEENS_22__unordered_map_hasherIS7_S9_NS_4hashIS7_EENS_8equal_toIS7_EELb1EEENS_21__unordered_map_equalIS7_S9_SE_SC_Lb1EEENS5_IS9_EEE21__construct_node_hashINS_4pairIKS7_S8_EEJEEENS_10unique_ptrINS_11__hash_nodeIS9_PvEENS_22__hash_node_destructorINS5_ISR_EEEEEEmOT_DpOT0_, symObjAddr: 0x5DE8, symBinAddr: 0x10000A3B8, symSize: 0x140 }
  - { offsetInCU: 0x25C37, offset: 0x25C37, size: 0x8, addend: 0x0, symName: __ZNSt3__112__hash_tableINS_17__hash_value_typeINS_12basic_stringIcNS_11char_traitsIcEENS_9allocatorIcEEEE7LexTypeEENS_22__unordered_map_hasherIS7_S9_NS_4hashIS7_EENS_8equal_toIS7_EELb1EEENS_21__unordered_map_equalIS7_S9_SE_SC_Lb1EEENS5_IS9_EEE4sizeB7v160006Ev, symObjAddr: 0x5F28, symBinAddr: 0x10000A4F8, symSize: 0x28 }
  - { offsetInCU: 0x25C5D, offset: 0x25C5D, size: 0x8, addend: 0x0, symName: __ZNSt3__112__hash_tableINS_17__hash_value_typeINS_12basic_stringIcNS_11char_traitsIcEENS_9allocatorIcEEEE7LexTypeEENS_22__unordered_map_hasherIS7_S9_NS_4hashIS7_EENS_8equal_toIS7_EELb1EEENS_21__unordered_map_equalIS7_S9_SE_SC_Lb1EEENS5_IS9_EEE15max_load_factorB7v160006Ev, symObjAddr: 0x5F50, symBinAddr: 0x10000A520, symSize: 0x28 }
  - { offsetInCU: 0x25C83, offset: 0x25C83, size: 0x8, addend: 0x0, symName: __ZNSt3__112__hash_tableINS_17__hash_value_typeINS_12basic_stringIcNS_11char_traitsIcEENS_9allocatorIcEEEE7LexTypeEENS_22__unordered_map_hasherIS7_S9_NS_4hashIS7_EENS_8equal_toIS7_EELb1EEENS_21__unordered_map_equalIS7_S9_SE_SC_Lb1EEENS5_IS9_EEE15__rehash_uniqueB7v160006Em, symObjAddr: 0x5F78, symBinAddr: 0x10000A548, symSize: 0x2C }
  - { offsetInCU: 0x25CB7, offset: 0x25CB7, size: 0x8, addend: 0x0, symName: __Z4ceilB7v160006f, symObjAddr: 0x6020, symBinAddr: 0x10000A5F0, symSize: 0x18 }
  - { offsetInCU: 0x25CE6, offset: 0x25CE6, size: 0x8, addend: 0x0, symName: __ZNSt3__117__compressed_pairINS_16__hash_node_baseIPNS_11__hash_nodeINS_17__hash_value_typeINS_12basic_stringIcNS_11char_traitsIcEENS_9allocatorIcEEEE7LexTypeEEPvEEEENS7_ISD_EEE5firstB7v160006Ev, symObjAddr: 0x6038, symBinAddr: 0x10000A608, symSize: 0x24 }
  - { offsetInCU: 0x25D0C, offset: 0x25D0C, size: 0x8, addend: 0x0, symName: __ZNSt3__116__hash_node_baseIPNS_11__hash_nodeINS_17__hash_value_typeINS_12basic_stringIcNS_11char_traitsIcEENS_9allocatorIcEEEE7LexTypeEEPvEEE5__ptrB7v160006Ev, symObjAddr: 0x605C, symBinAddr: 0x10000A62C, symSize: 0x24 }
  - { offsetInCU: 0x25D32, offset: 0x25D32, size: 0x8, addend: 0x0, symName: __ZNKSt3__110unique_ptrINS_11__hash_nodeINS_17__hash_value_typeINS_12basic_stringIcNS_11char_traitsIcEENS_9allocatorIcEEEE7LexTypeEEPvEENS_22__hash_node_destructorINS6_ISC_EEEEEptB7v160006Ev, symObjAddr: 0x6080, symBinAddr: 0x10000A650, symSize: 0x28 }
  - { offsetInCU: 0x25D58, offset: 0x25D58, size: 0x8, addend: 0x0, symName: __ZNKSt3__110unique_ptrINS_11__hash_nodeINS_17__hash_value_typeINS_12basic_stringIcNS_11char_traitsIcEENS_9allocatorIcEEEE7LexTypeEEPvEENS_22__hash_node_destructorINS6_ISC_EEEEE3getB7v160006Ev, symObjAddr: 0x60A8, symBinAddr: 0x10000A678, symSize: 0x28 }
  - { offsetInCU: 0x25D7E, offset: 0x25D7E, size: 0x8, addend: 0x0, symName: __ZNSt3__110unique_ptrINS_11__hash_nodeINS_17__hash_value_typeINS_12basic_stringIcNS_11char_traitsIcEENS_9allocatorIcEEEE7LexTypeEEPvEENS_22__hash_node_destructorINS6_ISC_EEEEE7releaseB7v160006Ev, symObjAddr: 0x60D0, symBinAddr: 0x10000A6A0, symSize: 0x44 }
  - { offsetInCU: 0x25DB3, offset: 0x25DB3, size: 0x8, addend: 0x0, symName: __ZNSt3__110unique_ptrINS_11__hash_nodeINS_17__hash_value_typeINS_12basic_stringIcNS_11char_traitsIcEENS_9allocatorIcEEEE7LexTypeEEPvEENS_22__hash_node_destructorINS6_ISC_EEEEED1B7v160006Ev, symObjAddr: 0x6114, symBinAddr: 0x10000A6E4, symSize: 0x2C }
  - { offsetInCU: 0x25DDD, offset: 0x25DDD, size: 0x8, addend: 0x0, symName: __ZNSt3__115__hash_iteratorIPNS_11__hash_nodeINS_17__hash_value_typeINS_12basic_stringIcNS_11char_traitsIcEENS_9allocatorIcEEEE7LexTypeEEPvEEEC1B7v160006EPNS_16__hash_node_baseISD_EEPKv, symObjAddr: 0x6140, symBinAddr: 0x10000A710, symSize: 0x3C }
  - { offsetInCU: 0x25E2B, offset: 0x25E2B, size: 0x8, addend: 0x0, symName: __ZNSt3__14pairINS_15__hash_iteratorIPNS_11__hash_nodeINS_17__hash_value_typeINS_12basic_stringIcNS_11char_traitsIcEENS_9allocatorIcEEEE7LexTypeEEPvEEEEbEC1B7v160006ISF_RbLSC_0EEEOT_OT0_, symObjAddr: 0x617C, symBinAddr: 0x10000A74C, symSize: 0x3C }
  - { offsetInCU: 0x25E89, offset: 0x25E89, size: 0x8, addend: 0x0, symName: __ZNSt3__117__compressed_pairImNS_22__unordered_map_hasherINS_12basic_stringIcNS_11char_traitsIcEENS_9allocatorIcEEEENS_17__hash_value_typeIS7_7LexTypeEENS_4hashIS7_EENS_8equal_toIS7_EELb1EEEE6secondB7v160006Ev, symObjAddr: 0x61B8, symBinAddr: 0x10000A788, symSize: 0x24 }
  - { offsetInCU: 0x25EAF, offset: 0x25EAF, size: 0x8, addend: 0x0, symName: __ZNSt3__122__compressed_pair_elemINS_22__unordered_map_hasherINS_12basic_stringIcNS_11char_traitsIcEENS_9allocatorIcEEEENS_17__hash_value_typeIS7_7LexTypeEENS_4hashIS7_EENS_8equal_toIS7_EELb1EEELi1ELb1EE5__getB7v160006Ev, symObjAddr: 0x61DC, symBinAddr: 0x10000A7AC, symSize: 0x14 }
  - { offsetInCU: 0x25ED5, offset: 0x25ED5, size: 0x8, addend: 0x0, symName: __ZNKSt3__113__string_hashIcNS_9allocatorIcEEEclERKNS_12basic_stringIcNS_11char_traitsIcEES2_EE, symObjAddr: 0x61F0, symBinAddr: 0x10000A7C0, symSize: 0x64 }
  - { offsetInCU: 0x25F0A, offset: 0x25F0A, size: 0x8, addend: 0x0, symName: __ZNKSt3__112basic_stringIcNS_11char_traitsIcEENS_9allocatorIcEEE4dataB7v160006Ev, symObjAddr: 0x6290, symBinAddr: 0x10000A860, symSize: 0x28 }
  - { offsetInCU: 0x25F30, offset: 0x25F30, size: 0x8, addend: 0x0, symName: __ZNKSt3__112basic_stringIcNS_11char_traitsIcEENS_9allocatorIcEEE4sizeB7v160006Ev, symObjAddr: 0x62B8, symBinAddr: 0x10000A888, symSize: 0x54 }
  - { offsetInCU: 0x25F56, offset: 0x25F56, size: 0x8, addend: 0x0, symName: __ZNSt3__121__murmur2_or_cityhashImLm64EEclEPKvm, symObjAddr: 0x6318, symBinAddr: 0x10000A8E8, symSize: 0x410 }
  - { offsetInCU: 0x25FF1, offset: 0x25FF1, size: 0x8, addend: 0x0, symName: __ZNSt3__121__murmur2_or_cityhashImLm64EE18__hash_len_0_to_16EPKcm, symObjAddr: 0x6728, symBinAddr: 0x10000ACF8, symSize: 0x1C0 }
  - { offsetInCU: 0x260CA, offset: 0x260CA, size: 0x8, addend: 0x0, symName: __ZNSt3__121__murmur2_or_cityhashImLm64EE19__hash_len_17_to_32EPKcm, symObjAddr: 0x68E8, symBinAddr: 0x10000AEB8, symSize: 0x130 }
  - { offsetInCU: 0x26133, offset: 0x26133, size: 0x8, addend: 0x0, symName: __ZNSt3__121__murmur2_or_cityhashImLm64EE19__hash_len_33_to_64EPKcm, symObjAddr: 0x6A18, symBinAddr: 0x10000AFE8, symSize: 0x2B8 }
  - { offsetInCU: 0x261E5, offset: 0x261E5, size: 0x8, addend: 0x0, symName: __ZNSt3__121__murmur2_or_cityhashImLm64EE13__hash_len_16Emm, symObjAddr: 0x6CF0, symBinAddr: 0x10000B2C0, symSize: 0x80 }
  - { offsetInCU: 0x26240, offset: 0x26240, size: 0x8, addend: 0x0, symName: __ZNSt3__121__murmur2_or_cityhashImLm64EE29__weak_hash_len_32_with_seedsEPKcmm, symObjAddr: 0x6D70, symBinAddr: 0x10000B340, symSize: 0x88 }
  - { offsetInCU: 0x2627F, offset: 0x2627F, size: 0x8, addend: 0x0, symName: __ZNSt3__121__murmur2_or_cityhashImLm64EE8__rotateEmi, symObjAddr: 0x6DF8, symBinAddr: 0x10000B3C8, symSize: 0x64 }
  - { offsetInCU: 0x262B0, offset: 0x262B0, size: 0x8, addend: 0x0, symName: __ZNSt3__14pairImmEaSB7v160006EOS1_, symObjAddr: 0x6E5C, symBinAddr: 0x10000B42C, symSize: 0x30 }
  - { offsetInCU: 0x262E5, offset: 0x262E5, size: 0x8, addend: 0x0, symName: __ZNSt3__121__murmur2_or_cityhashImLm64EE11__shift_mixEm, symObjAddr: 0x6EC8, symBinAddr: 0x10000B498, symSize: 0x1C }
  - { offsetInCU: 0x26308, offset: 0x26308, size: 0x8, addend: 0x0, symName: __ZNSt3__121__murmur2_or_cityhashImLm64EE22__rotate_by_at_least_1Emi, symObjAddr: 0x6EE4, symBinAddr: 0x10000B4B4, symSize: 0x38 }
  - { offsetInCU: 0x26339, offset: 0x26339, size: 0x8, addend: 0x0, symName: __ZNSt3__121__murmur2_or_cityhashImLm64EE29__weak_hash_len_32_with_seedsEmmmmmm, symObjAddr: 0x6F3C, symBinAddr: 0x10000B50C, symSize: 0xD8 }
  - { offsetInCU: 0x263B6, offset: 0x263B6, size: 0x8, addend: 0x0, symName: __ZNSt3__14pairImmEC1B7v160006ImmLPv0EEEOT_OT0_, symObjAddr: 0x7014, symBinAddr: 0x10000B5E4, symSize: 0x3C }
  - { offsetInCU: 0x26414, offset: 0x26414, size: 0x8, addend: 0x0, symName: __ZNSt3__14pairImmEC2B7v160006ImmLPv0EEEOT_OT0_, symObjAddr: 0x7050, symBinAddr: 0x10000B620, symSize: 0x34 }
  - { offsetInCU: 0x26472, offset: 0x26472, size: 0x8, addend: 0x0, symName: __ZNKSt3__112basic_stringIcNS_11char_traitsIcEENS_9allocatorIcEEE13__get_pointerB7v160006Ev, symObjAddr: 0x7098, symBinAddr: 0x10000B668, symSize: 0x54 }
  - { offsetInCU: 0x26498, offset: 0x26498, size: 0x8, addend: 0x0, symName: __ZNKSt3__112basic_stringIcNS_11char_traitsIcEENS_9allocatorIcEEE9__is_longB7v160006Ev, symObjAddr: 0x70EC, symBinAddr: 0x10000B6BC, symSize: 0x38 }
  - { offsetInCU: 0x264BE, offset: 0x264BE, size: 0x8, addend: 0x0, symName: __ZNKSt3__112basic_stringIcNS_11char_traitsIcEENS_9allocatorIcEEE18__get_long_pointerB7v160006Ev, symObjAddr: 0x7124, symBinAddr: 0x10000B6F4, symSize: 0x28 }
  - { offsetInCU: 0x264E4, offset: 0x264E4, size: 0x8, addend: 0x0, symName: __ZNKSt3__112basic_stringIcNS_11char_traitsIcEENS_9allocatorIcEEE19__get_short_pointerB7v160006Ev, symObjAddr: 0x714C, symBinAddr: 0x10000B71C, symSize: 0x28 }
  - { offsetInCU: 0x2650A, offset: 0x2650A, size: 0x8, addend: 0x0, symName: __ZNKSt3__117__compressed_pairINS_12basic_stringIcNS_11char_traitsIcEENS_9allocatorIcEEE5__repES5_E5firstB7v160006Ev, symObjAddr: 0x7174, symBinAddr: 0x10000B744, symSize: 0x24 }
  - { offsetInCU: 0x26530, offset: 0x26530, size: 0x8, addend: 0x0, symName: __ZNKSt3__122__compressed_pair_elemINS_12basic_stringIcNS_11char_traitsIcEENS_9allocatorIcEEE5__repELi0ELb0EE5__getB7v160006Ev, symObjAddr: 0x7198, symBinAddr: 0x10000B768, symSize: 0x14 }
  - { offsetInCU: 0x26556, offset: 0x26556, size: 0x8, addend: 0x0, symName: __ZNSt3__114pointer_traitsIPKcE10pointer_toB7v160006ERS1_, symObjAddr: 0x71AC, symBinAddr: 0x10000B77C, symSize: 0x14 }
  - { offsetInCU: 0x26579, offset: 0x26579, size: 0x8, addend: 0x0, symName: __ZNKSt3__112basic_stringIcNS_11char_traitsIcEENS_9allocatorIcEEE15__get_long_sizeB7v160006Ev, symObjAddr: 0x71C0, symBinAddr: 0x10000B790, symSize: 0x28 }
  - { offsetInCU: 0x2659F, offset: 0x2659F, size: 0x8, addend: 0x0, symName: __ZNKSt3__112basic_stringIcNS_11char_traitsIcEENS_9allocatorIcEEE16__get_short_sizeB7v160006Ev, symObjAddr: 0x71E8, symBinAddr: 0x10000B7B8, symSize: 0x34 }
  - { offsetInCU: 0x265C5, offset: 0x265C5, size: 0x8, addend: 0x0, symName: __ZNKSt3__110unique_ptrIA_PNS_16__hash_node_baseIPNS_11__hash_nodeINS_17__hash_value_typeINS_12basic_stringIcNS_11char_traitsIcEENS_9allocatorIcEEEE7LexTypeEEPvEEEENS_25__bucket_list_deallocatorINS7_ISG_EEEEE11get_deleterB7v160006Ev, symObjAddr: 0x721C, symBinAddr: 0x10000B7EC, symSize: 0x24 }
  - { offsetInCU: 0x265EB, offset: 0x265EB, size: 0x8, addend: 0x0, symName: __ZNKSt3__125__bucket_list_deallocatorINS_9allocatorIPNS_16__hash_node_baseIPNS_11__hash_nodeINS_17__hash_value_typeINS_12basic_stringIcNS_11char_traitsIcEENS1_IcEEEE7LexTypeEEPvEEEEEEE4sizeB7v160006Ev, symObjAddr: 0x7240, symBinAddr: 0x10000B810, symSize: 0x28 }
  - { offsetInCU: 0x26611, offset: 0x26611, size: 0x8, addend: 0x0, symName: __ZNKSt3__117__compressed_pairIPPNS_16__hash_node_baseIPNS_11__hash_nodeINS_17__hash_value_typeINS_12basic_stringIcNS_11char_traitsIcEENS_9allocatorIcEEEE7LexTypeEEPvEEEENS_25__bucket_list_deallocatorINS7_ISG_EEEEE6secondB7v160006Ev, symObjAddr: 0x7268, symBinAddr: 0x10000B838, symSize: 0x28 }
  - { offsetInCU: 0x26637, offset: 0x26637, size: 0x8, addend: 0x0, symName: __ZNKSt3__122__compressed_pair_elemINS_25__bucket_list_deallocatorINS_9allocatorIPNS_16__hash_node_baseIPNS_11__hash_nodeINS_17__hash_value_typeINS_12basic_stringIcNS_11char_traitsIcEENS2_IcEEEE7LexTypeEEPvEEEEEEEELi1ELb0EE5__getB7v160006Ev, symObjAddr: 0x7290, symBinAddr: 0x10000B860, symSize: 0x14 }
  - { offsetInCU: 0x2665D, offset: 0x2665D, size: 0x8, addend: 0x0, symName: __ZNKSt3__117__compressed_pairImNS_9allocatorIPNS_16__hash_node_baseIPNS_11__hash_nodeINS_17__hash_value_typeINS_12basic_stringIcNS_11char_traitsIcEENS1_IcEEEE7LexTypeEEPvEEEEEEE5firstB7v160006Ev, symObjAddr: 0x72A4, symBinAddr: 0x10000B874, symSize: 0x24 }
  - { offsetInCU: 0x26683, offset: 0x26683, size: 0x8, addend: 0x0, symName: __ZNKSt3__122__compressed_pair_elemImLi0ELb0EE5__getB7v160006Ev, symObjAddr: 0x72C8, symBinAddr: 0x10000B898, symSize: 0x14 }
  - { offsetInCU: 0x266A9, offset: 0x266A9, size: 0x8, addend: 0x0, symName: __ZNKSt3__117__compressed_pairIPPNS_16__hash_node_baseIPNS_11__hash_nodeINS_17__hash_value_typeINS_12basic_stringIcNS_11char_traitsIcEENS_9allocatorIcEEEE7LexTypeEEPvEEEENS_25__bucket_list_deallocatorINS7_ISG_EEEEE5firstB7v160006Ev, symObjAddr: 0x72DC, symBinAddr: 0x10000B8AC, symSize: 0x24 }
  - { offsetInCU: 0x266CF, offset: 0x266CF, size: 0x8, addend: 0x0, symName: __ZNKSt3__122__compressed_pair_elemIPPNS_16__hash_node_baseIPNS_11__hash_nodeINS_17__hash_value_typeINS_12basic_stringIcNS_11char_traitsIcEENS_9allocatorIcEEEE7LexTypeEEPvEEEELi0ELb0EE5__getB7v160006Ev, symObjAddr: 0x7300, symBinAddr: 0x10000B8D0, symSize: 0x14 }
  - { offsetInCU: 0x266F5, offset: 0x266F5, size: 0x8, addend: 0x0, symName: __ZNSt3__117__compressed_pairIfNS_21__unordered_map_equalINS_12basic_stringIcNS_11char_traitsIcEENS_9allocatorIcEEEENS_17__hash_value_typeIS7_7LexTypeEENS_8equal_toIS7_EENS_4hashIS7_EELb1EEEE6secondB7v160006Ev, symObjAddr: 0x7314, symBinAddr: 0x10000B8E4, symSize: 0x24 }
  - { offsetInCU: 0x2671B, offset: 0x2671B, size: 0x8, addend: 0x0, symName: __ZNSt3__122__compressed_pair_elemINS_21__unordered_map_equalINS_12basic_stringIcNS_11char_traitsIcEENS_9allocatorIcEEEENS_17__hash_value_typeIS7_7LexTypeEENS_8equal_toIS7_EENS_4hashIS7_EELb1EEELi1ELb1EE5__getB7v160006Ev, symObjAddr: 0x7338, symBinAddr: 0x10000B908, symSize: 0x14 }
  - { offsetInCU: 0x26741, offset: 0x26741, size: 0x8, addend: 0x0, symName: __ZNKSt3__18equal_toINS_12basic_stringIcNS_11char_traitsIcEENS_9allocatorIcEEEEEclB7v160006ERKS6_S9_, symObjAddr: 0x734C, symBinAddr: 0x10000B91C, symSize: 0x34 }
  - { offsetInCU: 0x26785, offset: 0x26785, size: 0x8, addend: 0x0, symName: __ZNKSt3__117__hash_value_typeINS_12basic_stringIcNS_11char_traitsIcEENS_9allocatorIcEEEE7LexTypeE11__get_valueB7v160006Ev, symObjAddr: 0x7380, symBinAddr: 0x10000B950, symSize: 0x24 }
  - { offsetInCU: 0x267AB, offset: 0x267AB, size: 0x8, addend: 0x0, symName: __ZNSt3__111char_traitsIcE7compareEPKcS3_m, symObjAddr: 0x74EC, symBinAddr: 0x10000BABC, symSize: 0x6C }
  - { offsetInCU: 0x267EA, offset: 0x267EA, size: 0x8, addend: 0x0, symName: __ZNSt3__114pointer_traitsIPNS_16__hash_node_baseIPNS_11__hash_nodeINS_17__hash_value_typeINS_12basic_stringIcNS_11char_traitsIcEENS_9allocatorIcEEEE7LexTypeEEPvEEEEE10pointer_toB7v160006ERSF_, symObjAddr: 0x75C4, symBinAddr: 0x10000BB94, symSize: 0x14 }
  - { offsetInCU: 0x2680D, offset: 0x2680D, size: 0x8, addend: 0x0, symName: __ZNSt3__112__hash_tableINS_17__hash_value_typeINS_12basic_stringIcNS_11char_traitsIcEENS_9allocatorIcEEEE7LexTypeEENS_22__unordered_map_hasherIS7_S9_NS_4hashIS7_EENS_8equal_toIS7_EELb1EEENS_21__unordered_map_equalIS7_S9_SE_SC_Lb1EEENS5_IS9_EEE12__node_allocB7v160006Ev, symObjAddr: 0x75D8, symBinAddr: 0x10000BBA8, symSize: 0x28 }
  - { offsetInCU: 0x26833, offset: 0x26833, size: 0x8, addend: 0x0, symName: __ZNSt3__116allocator_traitsINS_9allocatorINS_11__hash_nodeINS_17__hash_value_typeINS_12basic_stringIcNS_11char_traitsIcEENS1_IcEEEE7LexTypeEEPvEEEEE8allocateB7v160006ERSD_m, symObjAddr: 0x7600, symBinAddr: 0x10000BBD0, symSize: 0x2C }
  - { offsetInCU: 0x26866, offset: 0x26866, size: 0x8, addend: 0x0, symName: __ZNSt3__122__hash_node_destructorINS_9allocatorINS_11__hash_nodeINS_17__hash_value_typeINS_12basic_stringIcNS_11char_traitsIcEENS1_IcEEEE7LexTypeEEPvEEEEEC1B7v160006ERSD_b, symObjAddr: 0x762C, symBinAddr: 0x10000BBFC, symSize: 0x48 }
  - { offsetInCU: 0x268B4, offset: 0x268B4, size: 0x8, addend: 0x0, symName: __ZNSt3__110unique_ptrINS_11__hash_nodeINS_17__hash_value_typeINS_12basic_stringIcNS_11char_traitsIcEENS_9allocatorIcEEEE7LexTypeEEPvEENS_22__hash_node_destructorINS6_ISC_EEEEEC1B7v160006ILb1EvEEPSC_NS_16__dependent_typeINS_27__unique_ptr_deleter_sfinaeISF_EEXT_EE20__good_rval_ref_typeE, symObjAddr: 0x7674, symBinAddr: 0x10000BC44, symSize: 0x3C }
  - { offsetInCU: 0x26905, offset: 0x26905, size: 0x8, addend: 0x0, symName: __ZNSt3__116allocator_traitsINS_9allocatorINS_11__hash_nodeINS_17__hash_value_typeINS_12basic_stringIcNS_11char_traitsIcEENS1_IcEEEE7LexTypeEEPvEEEEE9constructB7v160006INS_4pairIKS8_S9_EEJSI_EvEEvRSD_PT_DpOT0_, symObjAddr: 0x76B0, symBinAddr: 0x10000BC80, symSize: 0x34 }
  - { offsetInCU: 0x2695C, offset: 0x2695C, size: 0x8, addend: 0x0, symName: __ZNSt3__122__hash_key_value_typesINS_17__hash_value_typeINS_12basic_stringIcNS_11char_traitsIcEENS_9allocatorIcEEEE7LexTypeEEE9__get_ptrB7v160006ERS9_, symObjAddr: 0x76E4, symBinAddr: 0x10000BCB4, symSize: 0x24 }
  - { offsetInCU: 0x2697F, offset: 0x2697F, size: 0x8, addend: 0x0, symName: __ZNSt3__110unique_ptrINS_11__hash_nodeINS_17__hash_value_typeINS_12basic_stringIcNS_11char_traitsIcEENS_9allocatorIcEEEE7LexTypeEEPvEENS_22__hash_node_destructorINS6_ISC_EEEEE11get_deleterB7v160006Ev, symObjAddr: 0x7708, symBinAddr: 0x10000BCD8, symSize: 0x24 }
  - { offsetInCU: 0x269A5, offset: 0x269A5, size: 0x8, addend: 0x0, symName: __ZNSt3__117__compressed_pairINS_16__hash_node_baseIPNS_11__hash_nodeINS_17__hash_value_typeINS_12basic_stringIcNS_11char_traitsIcEENS_9allocatorIcEEEE7LexTypeEEPvEEEENS7_ISD_EEE6secondB7v160006Ev, symObjAddr: 0x772C, symBinAddr: 0x10000BCFC, symSize: 0x24 }
  - { offsetInCU: 0x269CB, offset: 0x269CB, size: 0x8, addend: 0x0, symName: __ZNSt3__122__compressed_pair_elemINS_9allocatorINS_11__hash_nodeINS_17__hash_value_typeINS_12basic_stringIcNS_11char_traitsIcEENS1_IcEEEE7LexTypeEEPvEEEELi1ELb1EE5__getB7v160006Ev, symObjAddr: 0x7750, symBinAddr: 0x10000BD20, symSize: 0x14 }
  - { offsetInCU: 0x269F1, offset: 0x269F1, size: 0x8, addend: 0x0, symName: __ZNSt3__19allocatorINS_11__hash_nodeINS_17__hash_value_typeINS_12basic_stringIcNS_11char_traitsIcEENS0_IcEEEE7LexTypeEEPvEEE8allocateB7v160006Em, symObjAddr: 0x7764, symBinAddr: 0x10000BD34, symSize: 0x5C }
  - { offsetInCU: 0x26A30, offset: 0x26A30, size: 0x8, addend: 0x0, symName: __ZNSt3__116allocator_traitsINS_9allocatorINS_11__hash_nodeINS_17__hash_value_typeINS_12basic_stringIcNS_11char_traitsIcEENS1_IcEEEE7LexTypeEEPvEEEEE8max_sizeB7v160006ISD_vEEmRKSD_, symObjAddr: 0x77C0, symBinAddr: 0x10000BD90, symSize: 0x24 }
  - { offsetInCU: 0x26A5E, offset: 0x26A5E, size: 0x8, addend: 0x0, symName: __ZNKSt3__19allocatorINS_11__hash_nodeINS_17__hash_value_typeINS_12basic_stringIcNS_11char_traitsIcEENS0_IcEEEE7LexTypeEEPvEEE8max_sizeB7v160006Ev, symObjAddr: 0x7878, symBinAddr: 0x10000BE48, symSize: 0x18 }
  - { offsetInCU: 0x26A84, offset: 0x26A84, size: 0x8, addend: 0x0, symName: __ZNSt3__122__hash_node_destructorINS_9allocatorINS_11__hash_nodeINS_17__hash_value_typeINS_12basic_stringIcNS_11char_traitsIcEENS1_IcEEEE7LexTypeEEPvEEEEEC2B7v160006ERSD_b, symObjAddr: 0x7900, symBinAddr: 0x10000BED0, symSize: 0x38 }
  - { offsetInCU: 0x26ACC, offset: 0x26ACC, size: 0x8, addend: 0x0, symName: __ZNSt3__110unique_ptrINS_11__hash_nodeINS_17__hash_value_typeINS_12basic_stringIcNS_11char_traitsIcEENS_9allocatorIcEEEE7LexTypeEEPvEENS_22__hash_node_destructorINS6_ISC_EEEEEC2B7v160006ILb1EvEEPSC_NS_16__dependent_typeINS_27__unique_ptr_deleter_sfinaeISF_EEXT_EE20__good_rval_ref_typeE, symObjAddr: 0x7938, symBinAddr: 0x10000BF08, symSize: 0x48 }
  - { offsetInCU: 0x26B1D, offset: 0x26B1D, size: 0x8, addend: 0x0, symName: __ZNSt3__117__compressed_pairIPNS_11__hash_nodeINS_17__hash_value_typeINS_12basic_stringIcNS_11char_traitsIcEENS_9allocatorIcEEEE7LexTypeEEPvEENS_22__hash_node_destructorINS6_ISC_EEEEEC1B7v160006IRSD_SG_EEOT_OT0_, symObjAddr: 0x7980, symBinAddr: 0x10000BF50, symSize: 0x3C }
  - { offsetInCU: 0x26B75, offset: 0x26B75, size: 0x8, addend: 0x0, symName: __ZNSt3__117__compressed_pairIPNS_11__hash_nodeINS_17__hash_value_typeINS_12basic_stringIcNS_11char_traitsIcEENS_9allocatorIcEEEE7LexTypeEEPvEENS_22__hash_node_destructorINS6_ISC_EEEEEC2B7v160006IRSD_SG_EEOT_OT0_, symObjAddr: 0x79BC, symBinAddr: 0x10000BF8C, symSize: 0x48 }
  - { offsetInCU: 0x26BCD, offset: 0x26BCD, size: 0x8, addend: 0x0, symName: __ZNSt3__122__compressed_pair_elemIPNS_11__hash_nodeINS_17__hash_value_typeINS_12basic_stringIcNS_11char_traitsIcEENS_9allocatorIcEEEE7LexTypeEEPvEELi0ELb0EEC2B7v160006IRSD_vEEOT_, symObjAddr: 0x7A04, symBinAddr: 0x10000BFD4, symSize: 0x24 }
  - { offsetInCU: 0x26C0F, offset: 0x26C0F, size: 0x8, addend: 0x0, symName: __ZNSt3__122__compressed_pair_elemINS_22__hash_node_destructorINS_9allocatorINS_11__hash_nodeINS_17__hash_value_typeINS_12basic_stringIcNS_11char_traitsIcEENS2_IcEEEE7LexTypeEEPvEEEEEELi1ELb0EEC2B7v160006ISF_vEEOT_, symObjAddr: 0x7A28, symBinAddr: 0x10000BFF8, symSize: 0x24 }
  - { offsetInCU: 0x26C51, offset: 0x26C51, size: 0x8, addend: 0x0, symName: __ZNSt3__19allocatorINS_11__hash_nodeINS_17__hash_value_typeINS_12basic_stringIcNS_11char_traitsIcEENS0_IcEEEE7LexTypeEEPvEEE9constructB7v160006INS_4pairIKS7_S8_EEJSG_EEEvPT_DpOT0_, symObjAddr: 0x7A4C, symBinAddr: 0x10000C01C, symSize: 0x30 }
  - { offsetInCU: 0x26CA7, offset: 0x26CA7, size: 0x8, addend: 0x0, symName: __ZNSt3__14pairIKNS_12basic_stringIcNS_11char_traitsIcEENS_9allocatorIcEEEE7LexTypeEC1EOS9_, symObjAddr: 0x7A7C, symBinAddr: 0x10000C04C, symSize: 0x34 }
  - { offsetInCU: 0x26CDB, offset: 0x26CDB, size: 0x8, addend: 0x0, symName: __ZNSt3__14pairIKNS_12basic_stringIcNS_11char_traitsIcEENS_9allocatorIcEEEE7LexTypeEC2EOS9_, symObjAddr: 0x7AB0, symBinAddr: 0x10000C080, symSize: 0x40 }
  - { offsetInCU: 0x26D0F, offset: 0x26D0F, size: 0x8, addend: 0x0, symName: __ZNSt3__117__hash_value_typeINS_12basic_stringIcNS_11char_traitsIcEENS_9allocatorIcEEEE7LexTypeE11__get_valueB7v160006Ev, symObjAddr: 0x7AF0, symBinAddr: 0x10000C0C0, symSize: 0x24 }
  - { offsetInCU: 0x26D35, offset: 0x26D35, size: 0x8, addend: 0x0, symName: __ZNSt3__117__compressed_pairIPNS_11__hash_nodeINS_17__hash_value_typeINS_12basic_stringIcNS_11char_traitsIcEENS_9allocatorIcEEEE7LexTypeEEPvEENS_22__hash_node_destructorINS6_ISC_EEEEE6secondB7v160006Ev, symObjAddr: 0x7B4C, symBinAddr: 0x10000C11C, symSize: 0x28 }
  - { offsetInCU: 0x26D5B, offset: 0x26D5B, size: 0x8, addend: 0x0, symName: __ZNSt3__122__compressed_pair_elemINS_22__hash_node_destructorINS_9allocatorINS_11__hash_nodeINS_17__hash_value_typeINS_12basic_stringIcNS_11char_traitsIcEENS2_IcEEEE7LexTypeEEPvEEEEEELi1ELb0EE5__getB7v160006Ev, symObjAddr: 0x7B74, symBinAddr: 0x10000C144, symSize: 0x14 }
  - { offsetInCU: 0x26D81, offset: 0x26D81, size: 0x8, addend: 0x0, symName: __ZNSt3__117__compressed_pairImNS_22__unordered_map_hasherINS_12basic_stringIcNS_11char_traitsIcEENS_9allocatorIcEEEENS_17__hash_value_typeIS7_7LexTypeEENS_4hashIS7_EENS_8equal_toIS7_EELb1EEEE5firstB7v160006Ev, symObjAddr: 0x7B88, symBinAddr: 0x10000C158, symSize: 0x24 }
  - { offsetInCU: 0x26DA7, offset: 0x26DA7, size: 0x8, addend: 0x0, symName: __ZNSt3__122__compressed_pair_elemImLi0ELb0EE5__getB7v160006Ev, symObjAddr: 0x7BAC, symBinAddr: 0x10000C17C, symSize: 0x14 }
  - { offsetInCU: 0x26DCD, offset: 0x26DCD, size: 0x8, addend: 0x0, symName: __ZNSt3__117__compressed_pairIfNS_21__unordered_map_equalINS_12basic_stringIcNS_11char_traitsIcEENS_9allocatorIcEEEENS_17__hash_value_typeIS7_7LexTypeEENS_8equal_toIS7_EENS_4hashIS7_EELb1EEEE5firstB7v160006Ev, symObjAddr: 0x7BC0, symBinAddr: 0x10000C190, symSize: 0x24 }
  - { offsetInCU: 0x26DF3, offset: 0x26DF3, size: 0x8, addend: 0x0, symName: __ZNSt3__122__compressed_pair_elemIfLi0ELb0EE5__getB7v160006Ev, symObjAddr: 0x7BE4, symBinAddr: 0x10000C1B4, symSize: 0x14 }
  - { offsetInCU: 0x26E19, offset: 0x26E19, size: 0x8, addend: 0x0, symName: __ZNSt3__112__hash_tableINS_17__hash_value_typeINS_12basic_stringIcNS_11char_traitsIcEENS_9allocatorIcEEEE7LexTypeEENS_22__unordered_map_hasherIS7_S9_NS_4hashIS7_EENS_8equal_toIS7_EELb1EEENS_21__unordered_map_equalIS7_S9_SE_SC_Lb1EEENS5_IS9_EEE8__rehashILb1EEEvm, symObjAddr: 0x7BF8, symBinAddr: 0x10000C1C8, symSize: 0x1A8 }
  - { offsetInCU: 0x26E69, offset: 0x26E69, size: 0x8, addend: 0x0, symName: __ZNSt3__112__hash_tableINS_17__hash_value_typeINS_12basic_stringIcNS_11char_traitsIcEENS_9allocatorIcEEEE7LexTypeEENS_22__unordered_map_hasherIS7_S9_NS_4hashIS7_EENS_8equal_toIS7_EELb1EEENS_21__unordered_map_equalIS7_S9_SE_SC_Lb1EEENS5_IS9_EEE11__do_rehashILb1EEEvm, symObjAddr: 0x7DA0, symBinAddr: 0x10000C370, symSize: 0x290 }
  - { offsetInCU: 0x26F4C, offset: 0x26F4C, size: 0x8, addend: 0x0, symName: __ZNSt3__110unique_ptrIA_PNS_16__hash_node_baseIPNS_11__hash_nodeINS_17__hash_value_typeINS_12basic_stringIcNS_11char_traitsIcEENS_9allocatorIcEEEE7LexTypeEEPvEEEENS_25__bucket_list_deallocatorINS7_ISG_EEEEE11get_deleterB7v160006Ev, symObjAddr: 0x80AC, symBinAddr: 0x10000C67C, symSize: 0x24 }
  - { offsetInCU: 0x26F72, offset: 0x26F72, size: 0x8, addend: 0x0, symName: __ZNSt3__125__bucket_list_deallocatorINS_9allocatorIPNS_16__hash_node_baseIPNS_11__hash_nodeINS_17__hash_value_typeINS_12basic_stringIcNS_11char_traitsIcEENS1_IcEEEE7LexTypeEEPvEEEEEEE7__allocB7v160006Ev, symObjAddr: 0x80D0, symBinAddr: 0x10000C6A0, symSize: 0x24 }
  - { offsetInCU: 0x26F98, offset: 0x26F98, size: 0x8, addend: 0x0, symName: __ZNSt3__110unique_ptrIA_PNS_16__hash_node_baseIPNS_11__hash_nodeINS_17__hash_value_typeINS_12basic_stringIcNS_11char_traitsIcEENS_9allocatorIcEEEE7LexTypeEEPvEEEENS_25__bucket_list_deallocatorINS7_ISG_EEEEE5resetB7v160006IPSG_EENS_9enable_ifIXsr28_CheckArrayPointerConversionIT_EE5valueEvE4typeESP_, symObjAddr: 0x80F4, symBinAddr: 0x10000C6C4, symSize: 0x78 }
  - { offsetInCU: 0x26FE5, offset: 0x26FE5, size: 0x8, addend: 0x0, symName: __ZNSt3__116allocator_traitsINS_9allocatorIPNS_16__hash_node_baseIPNS_11__hash_nodeINS_17__hash_value_typeINS_12basic_stringIcNS_11char_traitsIcEENS1_IcEEEE7LexTypeEEPvEEEEEEE8allocateB7v160006ERSH_m, symObjAddr: 0x816C, symBinAddr: 0x10000C73C, symSize: 0x2C }
  - { offsetInCU: 0x27018, offset: 0x27018, size: 0x8, addend: 0x0, symName: __ZNSt3__125__bucket_list_deallocatorINS_9allocatorIPNS_16__hash_node_baseIPNS_11__hash_nodeINS_17__hash_value_typeINS_12basic_stringIcNS_11char_traitsIcEENS1_IcEEEE7LexTypeEEPvEEEEEEE4sizeB7v160006Ev, symObjAddr: 0x8198, symBinAddr: 0x10000C768, symSize: 0x24 }
  - { offsetInCU: 0x2703E, offset: 0x2703E, size: 0x8, addend: 0x0, symName: __ZNSt3__117__compressed_pairIPPNS_16__hash_node_baseIPNS_11__hash_nodeINS_17__hash_value_typeINS_12basic_stringIcNS_11char_traitsIcEENS_9allocatorIcEEEE7LexTypeEEPvEEEENS_25__bucket_list_deallocatorINS7_ISG_EEEEE6secondB7v160006Ev, symObjAddr: 0x81BC, symBinAddr: 0x10000C78C, symSize: 0x28 }
  - { offsetInCU: 0x27064, offset: 0x27064, size: 0x8, addend: 0x0, symName: __ZNSt3__122__compressed_pair_elemINS_25__bucket_list_deallocatorINS_9allocatorIPNS_16__hash_node_baseIPNS_11__hash_nodeINS_17__hash_value_typeINS_12basic_stringIcNS_11char_traitsIcEENS2_IcEEEE7LexTypeEEPvEEEEEEEELi1ELb0EE5__getB7v160006Ev, symObjAddr: 0x81E4, symBinAddr: 0x10000C7B4, symSize: 0x14 }
  - { offsetInCU: 0x2708A, offset: 0x2708A, size: 0x8, addend: 0x0, symName: __ZNSt3__117__compressed_pairImNS_9allocatorIPNS_16__hash_node_baseIPNS_11__hash_nodeINS_17__hash_value_typeINS_12basic_stringIcNS_11char_traitsIcEENS1_IcEEEE7LexTypeEEPvEEEEEEE6secondB7v160006Ev, symObjAddr: 0x81F8, symBinAddr: 0x10000C7C8, symSize: 0x24 }
  - { offsetInCU: 0x270B0, offset: 0x270B0, size: 0x8, addend: 0x0, symName: __ZNSt3__122__compressed_pair_elemINS_9allocatorIPNS_16__hash_node_baseIPNS_11__hash_nodeINS_17__hash_value_typeINS_12basic_stringIcNS_11char_traitsIcEENS1_IcEEEE7LexTypeEEPvEEEEEELi1ELb1EE5__getB7v160006Ev, symObjAddr: 0x821C, symBinAddr: 0x10000C7EC, symSize: 0x14 }
  - { offsetInCU: 0x270D6, offset: 0x270D6, size: 0x8, addend: 0x0, symName: __ZNSt3__117__compressed_pairIPPNS_16__hash_node_baseIPNS_11__hash_nodeINS_17__hash_value_typeINS_12basic_stringIcNS_11char_traitsIcEENS_9allocatorIcEEEE7LexTypeEEPvEEEENS_25__bucket_list_deallocatorINS7_ISG_EEEEE5firstB7v160006Ev, symObjAddr: 0x8230, symBinAddr: 0x10000C800, symSize: 0x24 }
  - { offsetInCU: 0x270FC, offset: 0x270FC, size: 0x8, addend: 0x0, symName: __ZNSt3__125__bucket_list_deallocatorINS_9allocatorIPNS_16__hash_node_baseIPNS_11__hash_nodeINS_17__hash_value_typeINS_12basic_stringIcNS_11char_traitsIcEENS1_IcEEEE7LexTypeEEPvEEEEEEEclB7v160006EPSG_, symObjAddr: 0x8254, symBinAddr: 0x10000C824, symSize: 0x58 }
  - { offsetInCU: 0x27131, offset: 0x27131, size: 0x8, addend: 0x0, symName: __ZNSt3__122__compressed_pair_elemIPPNS_16__hash_node_baseIPNS_11__hash_nodeINS_17__hash_value_typeINS_12basic_stringIcNS_11char_traitsIcEENS_9allocatorIcEEEE7LexTypeEEPvEEEELi0ELb0EE5__getB7v160006Ev, symObjAddr: 0x82AC, symBinAddr: 0x10000C87C, symSize: 0x14 }
  - { offsetInCU: 0x27157, offset: 0x27157, size: 0x8, addend: 0x0, symName: __ZNSt3__116allocator_traitsINS_9allocatorIPNS_16__hash_node_baseIPNS_11__hash_nodeINS_17__hash_value_typeINS_12basic_stringIcNS_11char_traitsIcEENS1_IcEEEE7LexTypeEEPvEEEEEEE10deallocateB7v160006ERSH_PSG_m, symObjAddr: 0x82C0, symBinAddr: 0x10000C890, symSize: 0x34 }
  - { offsetInCU: 0x27199, offset: 0x27199, size: 0x8, addend: 0x0, symName: __ZNSt3__19allocatorIPNS_16__hash_node_baseIPNS_11__hash_nodeINS_17__hash_value_typeINS_12basic_stringIcNS_11char_traitsIcEENS0_IcEEEE7LexTypeEEPvEEEEE10deallocateB7v160006EPSF_m, symObjAddr: 0x82F4, symBinAddr: 0x10000C8C4, symSize: 0x40 }
  - { offsetInCU: 0x271DB, offset: 0x271DB, size: 0x8, addend: 0x0, symName: __ZNSt3__19allocatorIPNS_16__hash_node_baseIPNS_11__hash_nodeINS_17__hash_value_typeINS_12basic_stringIcNS_11char_traitsIcEENS0_IcEEEE7LexTypeEEPvEEEEE8allocateB7v160006Em, symObjAddr: 0x843C, symBinAddr: 0x10000CA0C, symSize: 0x58 }
  - { offsetInCU: 0x2721A, offset: 0x2721A, size: 0x8, addend: 0x0, symName: __ZNSt3__116allocator_traitsINS_9allocatorIPNS_16__hash_node_baseIPNS_11__hash_nodeINS_17__hash_value_typeINS_12basic_stringIcNS_11char_traitsIcEENS1_IcEEEE7LexTypeEEPvEEEEEEE8max_sizeB7v160006ISH_vEEmRKSH_, symObjAddr: 0x8494, symBinAddr: 0x10000CA64, symSize: 0x24 }
  - { offsetInCU: 0x27248, offset: 0x27248, size: 0x8, addend: 0x0, symName: __ZNKSt3__19allocatorIPNS_16__hash_node_baseIPNS_11__hash_nodeINS_17__hash_value_typeINS_12basic_stringIcNS_11char_traitsIcEENS0_IcEEEE7LexTypeEEPvEEEEE8max_sizeB7v160006Ev, symObjAddr: 0x84B8, symBinAddr: 0x10000CA88, symSize: 0x14 }
  - { offsetInCU: 0x2726E, offset: 0x2726E, size: 0x8, addend: 0x0, symName: __ZNSt3__117__compressed_pairImNS_9allocatorIPNS_16__hash_node_baseIPNS_11__hash_nodeINS_17__hash_value_typeINS_12basic_stringIcNS_11char_traitsIcEENS1_IcEEEE7LexTypeEEPvEEEEEEE5firstB7v160006Ev, symObjAddr: 0x84CC, symBinAddr: 0x10000CA9C, symSize: 0x24 }
  - { offsetInCU: 0x272A0, offset: 0x272A0, size: 0x8, addend: 0x0, symName: __ZNKSt3__16__lessImmEclB7v160006ERKmS3_, symObjAddr: 0x8560, symBinAddr: 0x10000CB30, symSize: 0x34 }
  - { offsetInCU: 0x272E2, offset: 0x272E2, size: 0x8, addend: 0x0, symName: __ZNSt3__122__compressed_pair_elemINS_16__hash_node_baseIPNS_11__hash_nodeINS_17__hash_value_typeINS_12basic_stringIcNS_11char_traitsIcEENS_9allocatorIcEEEE7LexTypeEEPvEEEELi0ELb0EE5__getB7v160006Ev, symObjAddr: 0x8594, symBinAddr: 0x10000CB64, symSize: 0x14 }
  - { offsetInCU: 0x27308, offset: 0x27308, size: 0x8, addend: 0x0, symName: __ZNKSt3__117__compressed_pairIPNS_11__hash_nodeINS_17__hash_value_typeINS_12basic_stringIcNS_11char_traitsIcEENS_9allocatorIcEEEE7LexTypeEEPvEENS_22__hash_node_destructorINS6_ISC_EEEEE5firstB7v160006Ev, symObjAddr: 0x85A8, symBinAddr: 0x10000CB78, symSize: 0x24 }
  - { offsetInCU: 0x2732E, offset: 0x2732E, size: 0x8, addend: 0x0, symName: __ZNKSt3__122__compressed_pair_elemIPNS_11__hash_nodeINS_17__hash_value_typeINS_12basic_stringIcNS_11char_traitsIcEENS_9allocatorIcEEEE7LexTypeEEPvEELi0ELb0EE5__getB7v160006Ev, symObjAddr: 0x85CC, symBinAddr: 0x10000CB9C, symSize: 0x14 }
  - { offsetInCU: 0x27354, offset: 0x27354, size: 0x8, addend: 0x0, symName: __ZNSt3__117__compressed_pairIPNS_11__hash_nodeINS_17__hash_value_typeINS_12basic_stringIcNS_11char_traitsIcEENS_9allocatorIcEEEE7LexTypeEEPvEENS_22__hash_node_destructorINS6_ISC_EEEEE5firstB7v160006Ev, symObjAddr: 0x85E0, symBinAddr: 0x10000CBB0, symSize: 0x24 }
  - { offsetInCU: 0x2737A, offset: 0x2737A, size: 0x8, addend: 0x0, symName: __ZNSt3__122__compressed_pair_elemIPNS_11__hash_nodeINS_17__hash_value_typeINS_12basic_stringIcNS_11char_traitsIcEENS_9allocatorIcEEEE7LexTypeEEPvEELi0ELb0EE5__getB7v160006Ev, symObjAddr: 0x8604, symBinAddr: 0x10000CBD4, symSize: 0x14 }
  - { offsetInCU: 0x273A0, offset: 0x273A0, size: 0x8, addend: 0x0, symName: __ZNSt3__110unique_ptrINS_11__hash_nodeINS_17__hash_value_typeINS_12basic_stringIcNS_11char_traitsIcEENS_9allocatorIcEEEE7LexTypeEEPvEENS_22__hash_node_destructorINS6_ISC_EEEEED2B7v160006Ev, symObjAddr: 0x8618, symBinAddr: 0x10000CBE8, symSize: 0x30 }
  - { offsetInCU: 0x273CA, offset: 0x273CA, size: 0x8, addend: 0x0, symName: __ZNSt3__110unique_ptrINS_11__hash_nodeINS_17__hash_value_typeINS_12basic_stringIcNS_11char_traitsIcEENS_9allocatorIcEEEE7LexTypeEEPvEENS_22__hash_node_destructorINS6_ISC_EEEEE5resetB7v160006EPSC_, symObjAddr: 0x8648, symBinAddr: 0x10000CC18, symSize: 0x78 }
  - { offsetInCU: 0x2740E, offset: 0x2740E, size: 0x8, addend: 0x0, symName: __ZNSt3__122__hash_node_destructorINS_9allocatorINS_11__hash_nodeINS_17__hash_value_typeINS_12basic_stringIcNS_11char_traitsIcEENS1_IcEEEE7LexTypeEEPvEEEEEclB7v160006EPSC_, symObjAddr: 0x86C0, symBinAddr: 0x10000CC90, symSize: 0x98 }
  - { offsetInCU: 0x27443, offset: 0x27443, size: 0x8, addend: 0x0, symName: __ZNSt3__116allocator_traitsINS_9allocatorINS_11__hash_nodeINS_17__hash_value_typeINS_12basic_stringIcNS_11char_traitsIcEENS1_IcEEEE7LexTypeEEPvEEEEE7destroyB7v160006INS_4pairIKS8_S9_EEvvEEvRSD_PT_, symObjAddr: 0x8758, symBinAddr: 0x10000CD28, symSize: 0x28 }
  - { offsetInCU: 0x2747D, offset: 0x2747D, size: 0x8, addend: 0x0, symName: __ZNSt3__116allocator_traitsINS_9allocatorINS_11__hash_nodeINS_17__hash_value_typeINS_12basic_stringIcNS_11char_traitsIcEENS1_IcEEEE7LexTypeEEPvEEEEE10deallocateB7v160006ERSD_PSC_m, symObjAddr: 0x8780, symBinAddr: 0x10000CD50, symSize: 0x34 }
  - { offsetInCU: 0x274BF, offset: 0x274BF, size: 0x8, addend: 0x0, symName: __ZNSt3__19allocatorINS_11__hash_nodeINS_17__hash_value_typeINS_12basic_stringIcNS_11char_traitsIcEENS0_IcEEEE7LexTypeEEPvEEE10deallocateB7v160006EPSB_m, symObjAddr: 0x87B4, symBinAddr: 0x10000CD84, symSize: 0x44 }
  - { offsetInCU: 0x27501, offset: 0x27501, size: 0x8, addend: 0x0, symName: __ZNSt3__115__hash_iteratorIPNS_11__hash_nodeINS_17__hash_value_typeINS_12basic_stringIcNS_11char_traitsIcEENS_9allocatorIcEEEE7LexTypeEEPvEEEC2B7v160006EPNS_16__hash_node_baseISD_EEPKv, symObjAddr: 0x87F8, symBinAddr: 0x10000CDC8, symSize: 0x24 }
  - { offsetInCU: 0x27549, offset: 0x27549, size: 0x8, addend: 0x0, symName: __ZNSt3__14pairINS_15__hash_iteratorIPNS_11__hash_nodeINS_17__hash_value_typeINS_12basic_stringIcNS_11char_traitsIcEENS_9allocatorIcEEEE7LexTypeEEPvEEEEbEC2B7v160006ISF_RbLSC_0EEEOT_OT0_, symObjAddr: 0x881C, symBinAddr: 0x10000CDEC, symSize: 0x38 }
  - { offsetInCU: 0x275A7, offset: 0x275A7, size: 0x8, addend: 0x0, symName: __ZNSt3__14pairINS_19__hash_map_iteratorINS_15__hash_iteratorIPNS_11__hash_nodeINS_17__hash_value_typeINS_12basic_stringIcNS_11char_traitsIcEENS_9allocatorIcEEEE7LexTypeEEPvEEEEEEbEC2B7v160006ISG_bLSD_0EEEONS0_IT_T0_EE, symObjAddr: 0x8854, symBinAddr: 0x10000CE24, symSize: 0x50 }
  - { offsetInCU: 0x275F8, offset: 0x275F8, size: 0x8, addend: 0x0, symName: __ZNSt3__119__hash_map_iteratorINS_15__hash_iteratorIPNS_11__hash_nodeINS_17__hash_value_typeINS_12basic_stringIcNS_11char_traitsIcEENS_9allocatorIcEEEE7LexTypeEEPvEEEEEC1B7v160006ESF_, symObjAddr: 0x88A4, symBinAddr: 0x10000CE74, symSize: 0x34 }
  - { offsetInCU: 0x27631, offset: 0x27631, size: 0x8, addend: 0x0, symName: __ZNSt3__119__hash_map_iteratorINS_15__hash_iteratorIPNS_11__hash_nodeINS_17__hash_value_typeINS_12basic_stringIcNS_11char_traitsIcEENS_9allocatorIcEEEE7LexTypeEEPvEEEEEC2B7v160006ESF_, symObjAddr: 0x88D8, symBinAddr: 0x10000CEA8, symSize: 0x20 }
  - { offsetInCU: 0x2766A, offset: 0x2766A, size: 0x8, addend: 0x0, symName: __ZNSt3__14pairIKNS_12basic_stringIcNS_11char_traitsIcEENS_9allocatorIcEEEE7LexTypeEC2B7v160006IRA8_KcS8_LPv0EEEOT_OT0_, symObjAddr: 0x88F8, symBinAddr: 0x10000CEC8, symSize: 0x44 }
  - { offsetInCU: 0x276C8, offset: 0x276C8, size: 0x8, addend: 0x0, symName: __ZNSt3__14pairIKNS_12basic_stringIcNS_11char_traitsIcEENS_9allocatorIcEEEE7LexTypeED2Ev, symObjAddr: 0x893C, symBinAddr: 0x10000CF0C, symSize: 0x2C }
  - { offsetInCU: 0x276F4, offset: 0x276F4, size: 0x8, addend: 0x0, symName: __ZNSt3__14pairIKNS_12basic_stringIcNS_11char_traitsIcEENS_9allocatorIcEEEE7LexTypeEC2B7v160006IRA5_KcS8_LPv0EEEOT_OT0_, symObjAddr: 0x8968, symBinAddr: 0x10000CF38, symSize: 0x44 }
  - { offsetInCU: 0x27752, offset: 0x27752, size: 0x8, addend: 0x0, symName: __ZNSt3__14pairIKNS_12basic_stringIcNS_11char_traitsIcEENS_9allocatorIcEEEE7LexTypeEC2B7v160006IRA4_KcS8_LPv0EEEOT_OT0_, symObjAddr: 0x89AC, symBinAddr: 0x10000CF7C, symSize: 0x44 }
  - { offsetInCU: 0x277B0, offset: 0x277B0, size: 0x8, addend: 0x0, symName: __ZNSt3__14pairIKNS_12basic_stringIcNS_11char_traitsIcEENS_9allocatorIcEEEE7LexTypeEC2B7v160006IRA10_KcS8_LPv0EEEOT_OT0_, symObjAddr: 0x89F0, symBinAddr: 0x10000CFC0, symSize: 0x44 }
  - { offsetInCU: 0x2780E, offset: 0x2780E, size: 0x8, addend: 0x0, symName: __ZNSt3__14pairIKNS_12basic_stringIcNS_11char_traitsIcEENS_9allocatorIcEEEE7LexTypeEC2B7v160006IRA6_KcS8_LPv0EEEOT_OT0_, symObjAddr: 0x8A34, symBinAddr: 0x10000D004, symSize: 0x44 }
  - { offsetInCU: 0x2786C, offset: 0x2786C, size: 0x8, addend: 0x0, symName: __ZNSt3__14pairIKNS_12basic_stringIcNS_11char_traitsIcEENS_9allocatorIcEEEE7LexTypeEC2B7v160006IRA3_KcS8_LPv0EEEOT_OT0_, symObjAddr: 0x8A78, symBinAddr: 0x10000D048, symSize: 0x44 }
  - { offsetInCU: 0x278CA, offset: 0x278CA, size: 0x8, addend: 0x0, symName: __ZNSt3__14pairIKNS_12basic_stringIcNS_11char_traitsIcEENS_9allocatorIcEEEE7LexTypeEC2B7v160006IRA7_KcS8_LPv0EEEOT_OT0_, symObjAddr: 0x8ABC, symBinAddr: 0x10000D08C, symSize: 0x44 }
  - { offsetInCU: 0x27928, offset: 0x27928, size: 0x8, addend: 0x0, symName: __ZNSt3__112__hash_tableINS_17__hash_value_typeI7LexTypeNS_12basic_stringIcNS_11char_traitsIcEENS_9allocatorIcEEEEEENS_22__unordered_map_hasherIS2_S9_NS_4hashIS2_EENS_8equal_toIS2_EELb1EEENS_21__unordered_map_equalIS2_S9_SE_SC_Lb1EEENS6_IS9_EEE15__insert_uniqueB7v160006EONS_4pairIKS2_S8_EE, symObjAddr: 0x8B00, symBinAddr: 0x10000D0D0, symSize: 0x50 }
  - { offsetInCU: 0x2795D, offset: 0x2795D, size: 0x8, addend: 0x0, symName: __ZNSt3__14pairINS_19__hash_map_iteratorINS_15__hash_iteratorIPNS_11__hash_nodeINS_17__hash_value_typeI7LexTypeNS_12basic_stringIcNS_11char_traitsIcEENS_9allocatorIcEEEEEEPvEEEEEEbEC1B7v160006ISG_bLSD_0EEEONS0_IT_T0_EE, symObjAddr: 0x8B50, symBinAddr: 0x10000D120, symSize: 0x34 }
  - { offsetInCU: 0x279AE, offset: 0x279AE, size: 0x8, addend: 0x0, symName: __ZNSt3__112__hash_tableINS_17__hash_value_typeI7LexTypeNS_12basic_stringIcNS_11char_traitsIcEENS_9allocatorIcEEEEEENS_22__unordered_map_hasherIS2_S9_NS_4hashIS2_EENS_8equal_toIS2_EELb1EEENS_21__unordered_map_equalIS2_S9_SE_SC_Lb1EEENS6_IS9_EEE25__emplace_unique_key_argsIS2_JNS_4pairIKS2_S8_EEEEENSL_INS_15__hash_iteratorIPNS_11__hash_nodeIS9_PvEEEEbEERKT_DpOT0_, symObjAddr: 0x8B84, symBinAddr: 0x10000D154, symSize: 0x4A4 }
  - { offsetInCU: 0x27A8E, offset: 0x27A8E, size: 0x8, addend: 0x0, symName: __ZNSt3__122__hash_key_value_typesINS_17__hash_value_typeI7LexTypeNS_12basic_stringIcNS_11char_traitsIcEENS_9allocatorIcEEEEEEE9__get_keyB7v160006ERKNS_4pairIKS2_S8_EE, symObjAddr: 0x9028, symBinAddr: 0x10000D5F8, symSize: 0x14 }
  - { offsetInCU: 0x27AB1, offset: 0x27AB1, size: 0x8, addend: 0x0, symName: __ZNSt3__112__hash_tableINS_17__hash_value_typeI7LexTypeNS_12basic_stringIcNS_11char_traitsIcEENS_9allocatorIcEEEEEENS_22__unordered_map_hasherIS2_S9_NS_4hashIS2_EENS_8equal_toIS2_EELb1EEENS_21__unordered_map_equalIS2_S9_SE_SC_Lb1EEENS6_IS9_EEE13hash_functionB7v160006Ev, symObjAddr: 0x903C, symBinAddr: 0x10000D60C, symSize: 0x28 }
  - { offsetInCU: 0x27AD7, offset: 0x27AD7, size: 0x8, addend: 0x0, symName: __ZNKSt3__122__unordered_map_hasherI7LexTypeNS_17__hash_value_typeIS1_NS_12basic_stringIcNS_11char_traitsIcEENS_9allocatorIcEEEEEENS_4hashIS1_EENS_8equal_toIS1_EELb1EEclB7v160006ERKS1_, symObjAddr: 0x9064, symBinAddr: 0x10000D634, symSize: 0x30 }
  - { offsetInCU: 0x27B0C, offset: 0x27B0C, size: 0x8, addend: 0x0, symName: __ZNKSt3__112__hash_tableINS_17__hash_value_typeI7LexTypeNS_12basic_stringIcNS_11char_traitsIcEENS_9allocatorIcEEEEEENS_22__unordered_map_hasherIS2_S9_NS_4hashIS2_EENS_8equal_toIS2_EELb1EEENS_21__unordered_map_equalIS2_S9_SE_SC_Lb1EEENS6_IS9_EEE12bucket_countB7v160006Ev, symObjAddr: 0x9094, symBinAddr: 0x10000D664, symSize: 0x28 }
  - { offsetInCU: 0x27B32, offset: 0x27B32, size: 0x8, addend: 0x0, symName: __ZNKSt3__110unique_ptrIA_PNS_16__hash_node_baseIPNS_11__hash_nodeINS_17__hash_value_typeI7LexTypeNS_12basic_stringIcNS_11char_traitsIcEENS_9allocatorIcEEEEEEPvEEEENS_25__bucket_list_deallocatorINS8_ISG_EEEEEixB7v160006Em, symObjAddr: 0x90BC, symBinAddr: 0x10000D68C, symSize: 0x34 }
  - { offsetInCU: 0x27B67, offset: 0x27B67, size: 0x8, addend: 0x0, symName: __ZNKSt3__116__hash_node_baseIPNS_11__hash_nodeINS_17__hash_value_typeI7LexTypeNS_12basic_stringIcNS_11char_traitsIcEENS_9allocatorIcEEEEEEPvEEE6__hashB7v160006Ev, symObjAddr: 0x90F0, symBinAddr: 0x10000D6C0, symSize: 0x18 }
  - { offsetInCU: 0x27B8D, offset: 0x27B8D, size: 0x8, addend: 0x0, symName: __ZNSt3__112__hash_tableINS_17__hash_value_typeI7LexTypeNS_12basic_stringIcNS_11char_traitsIcEENS_9allocatorIcEEEEEENS_22__unordered_map_hasherIS2_S9_NS_4hashIS2_EENS_8equal_toIS2_EELb1EEENS_21__unordered_map_equalIS2_S9_SE_SC_Lb1EEENS6_IS9_EEE6key_eqB7v160006Ev, symObjAddr: 0x9108, symBinAddr: 0x10000D6D8, symSize: 0x28 }
  - { offsetInCU: 0x27BB3, offset: 0x27BB3, size: 0x8, addend: 0x0, symName: __ZNKSt3__121__unordered_map_equalI7LexTypeNS_17__hash_value_typeIS1_NS_12basic_stringIcNS_11char_traitsIcEENS_9allocatorIcEEEEEENS_8equal_toIS1_EENS_4hashIS1_EELb1EEclB7v160006ERKS9_RKS1_, symObjAddr: 0x9130, symBinAddr: 0x10000D700, symSize: 0x48 }
  - { offsetInCU: 0x27BF7, offset: 0x27BF7, size: 0x8, addend: 0x0, symName: __ZNSt3__116__hash_node_baseIPNS_11__hash_nodeINS_17__hash_value_typeI7LexTypeNS_12basic_stringIcNS_11char_traitsIcEENS_9allocatorIcEEEEEEPvEEE8__upcastB7v160006Ev, symObjAddr: 0x9178, symBinAddr: 0x10000D748, symSize: 0x24 }
  - { offsetInCU: 0x27C1D, offset: 0x27C1D, size: 0x8, addend: 0x0, symName: __ZNSt3__112__hash_tableINS_17__hash_value_typeI7LexTypeNS_12basic_stringIcNS_11char_traitsIcEENS_9allocatorIcEEEEEENS_22__unordered_map_hasherIS2_S9_NS_4hashIS2_EENS_8equal_toIS2_EELb1EEENS_21__unordered_map_equalIS2_S9_SE_SC_Lb1EEENS6_IS9_EEE21__construct_node_hashINS_4pairIKS2_S8_EEJEEENS_10unique_ptrINS_11__hash_nodeIS9_PvEENS_22__hash_node_destructorINS6_ISR_EEEEEEmOT_DpOT0_, symObjAddr: 0x919C, symBinAddr: 0x10000D76C, symSize: 0x140 }
  - { offsetInCU: 0x27C90, offset: 0x27C90, size: 0x8, addend: 0x0, symName: __ZNSt3__112__hash_tableINS_17__hash_value_typeI7LexTypeNS_12basic_stringIcNS_11char_traitsIcEENS_9allocatorIcEEEEEENS_22__unordered_map_hasherIS2_S9_NS_4hashIS2_EENS_8equal_toIS2_EELb1EEENS_21__unordered_map_equalIS2_S9_SE_SC_Lb1EEENS6_IS9_EEE4sizeB7v160006Ev, symObjAddr: 0x92DC, symBinAddr: 0x10000D8AC, symSize: 0x28 }
  - { offsetInCU: 0x27CB6, offset: 0x27CB6, size: 0x8, addend: 0x0, symName: __ZNSt3__112__hash_tableINS_17__hash_value_typeI7LexTypeNS_12basic_stringIcNS_11char_traitsIcEENS_9allocatorIcEEEEEENS_22__unordered_map_hasherIS2_S9_NS_4hashIS2_EENS_8equal_toIS2_EELb1EEENS_21__unordered_map_equalIS2_S9_SE_SC_Lb1EEENS6_IS9_EEE15max_load_factorB7v160006Ev, symObjAddr: 0x9304, symBinAddr: 0x10000D8D4, symSize: 0x28 }
  - { offsetInCU: 0x27CDC, offset: 0x27CDC, size: 0x8, addend: 0x0, symName: __ZNSt3__112__hash_tableINS_17__hash_value_typeI7LexTypeNS_12basic_stringIcNS_11char_traitsIcEENS_9allocatorIcEEEEEENS_22__unordered_map_hasherIS2_S9_NS_4hashIS2_EENS_8equal_toIS2_EELb1EEENS_21__unordered_map_equalIS2_S9_SE_SC_Lb1EEENS6_IS9_EEE15__rehash_uniqueB7v160006Em, symObjAddr: 0x932C, symBinAddr: 0x10000D8FC, symSize: 0x2C }
  - { offsetInCU: 0x27D11, offset: 0x27D11, size: 0x8, addend: 0x0, symName: __ZNSt3__117__compressed_pairINS_16__hash_node_baseIPNS_11__hash_nodeINS_17__hash_value_typeI7LexTypeNS_12basic_stringIcNS_11char_traitsIcEENS_9allocatorIcEEEEEEPvEEEENS8_ISD_EEE5firstB7v160006Ev, symObjAddr: 0x9358, symBinAddr: 0x10000D928, symSize: 0x24 }
  - { offsetInCU: 0x27D37, offset: 0x27D37, size: 0x8, addend: 0x0, symName: __ZNSt3__116__hash_node_baseIPNS_11__hash_nodeINS_17__hash_value_typeI7LexTypeNS_12basic_stringIcNS_11char_traitsIcEENS_9allocatorIcEEEEEEPvEEE5__ptrB7v160006Ev, symObjAddr: 0x937C, symBinAddr: 0x10000D94C, symSize: 0x24 }
  - { offsetInCU: 0x27D5D, offset: 0x27D5D, size: 0x8, addend: 0x0, symName: __ZNKSt3__110unique_ptrINS_11__hash_nodeINS_17__hash_value_typeI7LexTypeNS_12basic_stringIcNS_11char_traitsIcEENS_9allocatorIcEEEEEEPvEENS_22__hash_node_destructorINS7_ISC_EEEEEptB7v160006Ev, symObjAddr: 0x93A0, symBinAddr: 0x10000D970, symSize: 0x28 }
  - { offsetInCU: 0x27D83, offset: 0x27D83, size: 0x8, addend: 0x0, symName: __ZNKSt3__110unique_ptrINS_11__hash_nodeINS_17__hash_value_typeI7LexTypeNS_12basic_stringIcNS_11char_traitsIcEENS_9allocatorIcEEEEEEPvEENS_22__hash_node_destructorINS7_ISC_EEEEE3getB7v160006Ev, symObjAddr: 0x93C8, symBinAddr: 0x10000D998, symSize: 0x28 }
  - { offsetInCU: 0x27DA9, offset: 0x27DA9, size: 0x8, addend: 0x0, symName: __ZNSt3__110unique_ptrINS_11__hash_nodeINS_17__hash_value_typeI7LexTypeNS_12basic_stringIcNS_11char_traitsIcEENS_9allocatorIcEEEEEEPvEENS_22__hash_node_destructorINS7_ISC_EEEEE7releaseB7v160006Ev, symObjAddr: 0x93F0, symBinAddr: 0x10000D9C0, symSize: 0x44 }
  - { offsetInCU: 0x27DDE, offset: 0x27DDE, size: 0x8, addend: 0x0, symName: __ZNSt3__110unique_ptrINS_11__hash_nodeINS_17__hash_value_typeI7LexTypeNS_12basic_stringIcNS_11char_traitsIcEENS_9allocatorIcEEEEEEPvEENS_22__hash_node_destructorINS7_ISC_EEEEED1B7v160006Ev, symObjAddr: 0x9434, symBinAddr: 0x10000DA04, symSize: 0x2C }
  - { offsetInCU: 0x27E08, offset: 0x27E08, size: 0x8, addend: 0x0, symName: __ZNSt3__115__hash_iteratorIPNS_11__hash_nodeINS_17__hash_value_typeI7LexTypeNS_12basic_stringIcNS_11char_traitsIcEENS_9allocatorIcEEEEEEPvEEEC1B7v160006EPNS_16__hash_node_baseISD_EEPKv, symObjAddr: 0x9460, symBinAddr: 0x10000DA30, symSize: 0x3C }
  - { offsetInCU: 0x27E56, offset: 0x27E56, size: 0x8, addend: 0x0, symName: __ZNSt3__14pairINS_15__hash_iteratorIPNS_11__hash_nodeINS_17__hash_value_typeI7LexTypeNS_12basic_stringIcNS_11char_traitsIcEENS_9allocatorIcEEEEEEPvEEEEbEC1B7v160006ISF_RbLSC_0EEEOT_OT0_, symObjAddr: 0x949C, symBinAddr: 0x10000DA6C, symSize: 0x3C }
  - { offsetInCU: 0x27EB4, offset: 0x27EB4, size: 0x8, addend: 0x0, symName: __ZNSt3__117__compressed_pairImNS_22__unordered_map_hasherI7LexTypeNS_17__hash_value_typeIS2_NS_12basic_stringIcNS_11char_traitsIcEENS_9allocatorIcEEEEEENS_4hashIS2_EENS_8equal_toIS2_EELb1EEEE6secondB7v160006Ev, symObjAddr: 0x94D8, symBinAddr: 0x10000DAA8, symSize: 0x24 }
  - { offsetInCU: 0x27EDA, offset: 0x27EDA, size: 0x8, addend: 0x0, symName: __ZNSt3__122__compressed_pair_elemINS_22__unordered_map_hasherI7LexTypeNS_17__hash_value_typeIS2_NS_12basic_stringIcNS_11char_traitsIcEENS_9allocatorIcEEEEEENS_4hashIS2_EENS_8equal_toIS2_EELb1EEELi1ELb1EE5__getB7v160006Ev, symObjAddr: 0x94FC, symBinAddr: 0x10000DACC, symSize: 0x14 }
  - { offsetInCU: 0x27F0C, offset: 0x27F0C, size: 0x8, addend: 0x0, symName: __ZNKSt3__14hashIjEclB7v160006Ej, symObjAddr: 0x953C, symBinAddr: 0x10000DB0C, symSize: 0x1C }
  - { offsetInCU: 0x27F41, offset: 0x27F41, size: 0x8, addend: 0x0, symName: __ZNKSt3__110unique_ptrIA_PNS_16__hash_node_baseIPNS_11__hash_nodeINS_17__hash_value_typeI7LexTypeNS_12basic_stringIcNS_11char_traitsIcEENS_9allocatorIcEEEEEEPvEEEENS_25__bucket_list_deallocatorINS8_ISG_EEEEE11get_deleterB7v160006Ev, symObjAddr: 0x9558, symBinAddr: 0x10000DB28, symSize: 0x24 }
  - { offsetInCU: 0x27F67, offset: 0x27F67, size: 0x8, addend: 0x0, symName: __ZNKSt3__125__bucket_list_deallocatorINS_9allocatorIPNS_16__hash_node_baseIPNS_11__hash_nodeINS_17__hash_value_typeI7LexTypeNS_12basic_stringIcNS_11char_traitsIcEENS1_IcEEEEEEPvEEEEEEE4sizeB7v160006Ev, symObjAddr: 0x957C, symBinAddr: 0x10000DB4C, symSize: 0x28 }
  - { offsetInCU: 0x27F8D, offset: 0x27F8D, size: 0x8, addend: 0x0, symName: __ZNKSt3__117__compressed_pairIPPNS_16__hash_node_baseIPNS_11__hash_nodeINS_17__hash_value_typeI7LexTypeNS_12basic_stringIcNS_11char_traitsIcEENS_9allocatorIcEEEEEEPvEEEENS_25__bucket_list_deallocatorINS8_ISG_EEEEE6secondB7v160006Ev, symObjAddr: 0x95A4, symBinAddr: 0x10000DB74, symSize: 0x28 }
  - { offsetInCU: 0x27FB3, offset: 0x27FB3, size: 0x8, addend: 0x0, symName: __ZNKSt3__122__compressed_pair_elemINS_25__bucket_list_deallocatorINS_9allocatorIPNS_16__hash_node_baseIPNS_11__hash_nodeINS_17__hash_value_typeI7LexTypeNS_12basic_stringIcNS_11char_traitsIcEENS2_IcEEEEEEPvEEEEEEEELi1ELb0EE5__getB7v160006Ev, symObjAddr: 0x95CC, symBinAddr: 0x10000DB9C, symSize: 0x14 }
  - { offsetInCU: 0x27FD9, offset: 0x27FD9, size: 0x8, addend: 0x0, symName: __ZNKSt3__117__compressed_pairImNS_9allocatorIPNS_16__hash_node_baseIPNS_11__hash_nodeINS_17__hash_value_typeI7LexTypeNS_12basic_stringIcNS_11char_traitsIcEENS1_IcEEEEEEPvEEEEEEE5firstB7v160006Ev, symObjAddr: 0x95E0, symBinAddr: 0x10000DBB0, symSize: 0x24 }
  - { offsetInCU: 0x27FFF, offset: 0x27FFF, size: 0x8, addend: 0x0, symName: __ZNKSt3__117__compressed_pairIPPNS_16__hash_node_baseIPNS_11__hash_nodeINS_17__hash_value_typeI7LexTypeNS_12basic_stringIcNS_11char_traitsIcEENS_9allocatorIcEEEEEEPvEEEENS_25__bucket_list_deallocatorINS8_ISG_EEEEE5firstB7v160006Ev, symObjAddr: 0x9604, symBinAddr: 0x10000DBD4, symSize: 0x24 }
  - { offsetInCU: 0x28025, offset: 0x28025, size: 0x8, addend: 0x0, symName: __ZNKSt3__122__compressed_pair_elemIPPNS_16__hash_node_baseIPNS_11__hash_nodeINS_17__hash_value_typeI7LexTypeNS_12basic_stringIcNS_11char_traitsIcEENS_9allocatorIcEEEEEEPvEEEELi0ELb0EE5__getB7v160006Ev, symObjAddr: 0x9628, symBinAddr: 0x10000DBF8, symSize: 0x14 }
  - { offsetInCU: 0x2804B, offset: 0x2804B, size: 0x8, addend: 0x0, symName: __ZNSt3__117__compressed_pairIfNS_21__unordered_map_equalI7LexTypeNS_17__hash_value_typeIS2_NS_12basic_stringIcNS_11char_traitsIcEENS_9allocatorIcEEEEEENS_8equal_toIS2_EENS_4hashIS2_EELb1EEEE6secondB7v160006Ev, symObjAddr: 0x963C, symBinAddr: 0x10000DC0C, symSize: 0x24 }
  - { offsetInCU: 0x28071, offset: 0x28071, size: 0x8, addend: 0x0, symName: __ZNSt3__122__compressed_pair_elemINS_21__unordered_map_equalI7LexTypeNS_17__hash_value_typeIS2_NS_12basic_stringIcNS_11char_traitsIcEENS_9allocatorIcEEEEEENS_8equal_toIS2_EENS_4hashIS2_EELb1EEELi1ELb1EE5__getB7v160006Ev, symObjAddr: 0x9660, symBinAddr: 0x10000DC30, symSize: 0x14 }
  - { offsetInCU: 0x28097, offset: 0x28097, size: 0x8, addend: 0x0, symName: __ZNKSt3__18equal_toI7LexTypeEclB7v160006ERKS1_S4_, symObjAddr: 0x9674, symBinAddr: 0x10000DC44, symSize: 0x34 }
  - { offsetInCU: 0x280DB, offset: 0x280DB, size: 0x8, addend: 0x0, symName: __ZNKSt3__117__hash_value_typeI7LexTypeNS_12basic_stringIcNS_11char_traitsIcEENS_9allocatorIcEEEEE11__get_valueB7v160006Ev, symObjAddr: 0x96A8, symBinAddr: 0x10000DC78, symSize: 0x24 }
  - { offsetInCU: 0x28101, offset: 0x28101, size: 0x8, addend: 0x0, symName: __ZNSt3__114pointer_traitsIPNS_16__hash_node_baseIPNS_11__hash_nodeINS_17__hash_value_typeI7LexTypeNS_12basic_stringIcNS_11char_traitsIcEENS_9allocatorIcEEEEEEPvEEEEE10pointer_toB7v160006ERSF_, symObjAddr: 0x9704, symBinAddr: 0x10000DCD4, symSize: 0x14 }
  - { offsetInCU: 0x28124, offset: 0x28124, size: 0x8, addend: 0x0, symName: __ZNSt3__112__hash_tableINS_17__hash_value_typeI7LexTypeNS_12basic_stringIcNS_11char_traitsIcEENS_9allocatorIcEEEEEENS_22__unordered_map_hasherIS2_S9_NS_4hashIS2_EENS_8equal_toIS2_EELb1EEENS_21__unordered_map_equalIS2_S9_SE_SC_Lb1EEENS6_IS9_EEE12__node_allocB7v160006Ev, symObjAddr: 0x9718, symBinAddr: 0x10000DCE8, symSize: 0x28 }
  - { offsetInCU: 0x2814A, offset: 0x2814A, size: 0x8, addend: 0x0, symName: __ZNSt3__116allocator_traitsINS_9allocatorINS_11__hash_nodeINS_17__hash_value_typeI7LexTypeNS_12basic_stringIcNS_11char_traitsIcEENS1_IcEEEEEEPvEEEEE8allocateB7v160006ERSD_m, symObjAddr: 0x9740, symBinAddr: 0x10000DD10, symSize: 0x2C }
  - { offsetInCU: 0x2817D, offset: 0x2817D, size: 0x8, addend: 0x0, symName: __ZNSt3__122__hash_node_destructorINS_9allocatorINS_11__hash_nodeINS_17__hash_value_typeI7LexTypeNS_12basic_stringIcNS_11char_traitsIcEENS1_IcEEEEEEPvEEEEEC1B7v160006ERSD_b, symObjAddr: 0x976C, symBinAddr: 0x10000DD3C, symSize: 0x48 }
  - { offsetInCU: 0x281CB, offset: 0x281CB, size: 0x8, addend: 0x0, symName: __ZNSt3__110unique_ptrINS_11__hash_nodeINS_17__hash_value_typeI7LexTypeNS_12basic_stringIcNS_11char_traitsIcEENS_9allocatorIcEEEEEEPvEENS_22__hash_node_destructorINS7_ISC_EEEEEC1B7v160006ILb1EvEEPSC_NS_16__dependent_typeINS_27__unique_ptr_deleter_sfinaeISF_EEXT_EE20__good_rval_ref_typeE, symObjAddr: 0x97B4, symBinAddr: 0x10000DD84, symSize: 0x3C }
  - { offsetInCU: 0x2821C, offset: 0x2821C, size: 0x8, addend: 0x0, symName: __ZNSt3__116allocator_traitsINS_9allocatorINS_11__hash_nodeINS_17__hash_value_typeI7LexTypeNS_12basic_stringIcNS_11char_traitsIcEENS1_IcEEEEEEPvEEEEE9constructB7v160006INS_4pairIKS4_S9_EEJSI_EvEEvRSD_PT_DpOT0_, symObjAddr: 0x97F0, symBinAddr: 0x10000DDC0, symSize: 0x34 }
  - { offsetInCU: 0x28273, offset: 0x28273, size: 0x8, addend: 0x0, symName: __ZNSt3__122__hash_key_value_typesINS_17__hash_value_typeI7LexTypeNS_12basic_stringIcNS_11char_traitsIcEENS_9allocatorIcEEEEEEE9__get_ptrB7v160006ERS9_, symObjAddr: 0x9824, symBinAddr: 0x10000DDF4, symSize: 0x24 }
  - { offsetInCU: 0x28296, offset: 0x28296, size: 0x8, addend: 0x0, symName: __ZNSt3__110unique_ptrINS_11__hash_nodeINS_17__hash_value_typeI7LexTypeNS_12basic_stringIcNS_11char_traitsIcEENS_9allocatorIcEEEEEEPvEENS_22__hash_node_destructorINS7_ISC_EEEEE11get_deleterB7v160006Ev, symObjAddr: 0x9848, symBinAddr: 0x10000DE18, symSize: 0x24 }
  - { offsetInCU: 0x282BC, offset: 0x282BC, size: 0x8, addend: 0x0, symName: __ZNSt3__117__compressed_pairINS_16__hash_node_baseIPNS_11__hash_nodeINS_17__hash_value_typeI7LexTypeNS_12basic_stringIcNS_11char_traitsIcEENS_9allocatorIcEEEEEEPvEEEENS8_ISD_EEE6secondB7v160006Ev, symObjAddr: 0x986C, symBinAddr: 0x10000DE3C, symSize: 0x24 }
  - { offsetInCU: 0x282E2, offset: 0x282E2, size: 0x8, addend: 0x0, symName: __ZNSt3__122__compressed_pair_elemINS_9allocatorINS_11__hash_nodeINS_17__hash_value_typeI7LexTypeNS_12basic_stringIcNS_11char_traitsIcEENS1_IcEEEEEEPvEEEELi1ELb1EE5__getB7v160006Ev, symObjAddr: 0x9890, symBinAddr: 0x10000DE60, symSize: 0x14 }
  - { offsetInCU: 0x28308, offset: 0x28308, size: 0x8, addend: 0x0, symName: __ZNSt3__19allocatorINS_11__hash_nodeINS_17__hash_value_typeI7LexTypeNS_12basic_stringIcNS_11char_traitsIcEENS0_IcEEEEEEPvEEE8allocateB7v160006Em, symObjAddr: 0x98A4, symBinAddr: 0x10000DE74, symSize: 0x5C }
  - { offsetInCU: 0x28347, offset: 0x28347, size: 0x8, addend: 0x0, symName: __ZNSt3__116allocator_traitsINS_9allocatorINS_11__hash_nodeINS_17__hash_value_typeI7LexTypeNS_12basic_stringIcNS_11char_traitsIcEENS1_IcEEEEEEPvEEEEE8max_sizeB7v160006ISD_vEEmRKSD_, symObjAddr: 0x9900, symBinAddr: 0x10000DED0, symSize: 0x24 }
  - { offsetInCU: 0x28375, offset: 0x28375, size: 0x8, addend: 0x0, symName: __ZNKSt3__19allocatorINS_11__hash_nodeINS_17__hash_value_typeI7LexTypeNS_12basic_stringIcNS_11char_traitsIcEENS0_IcEEEEEEPvEEE8max_sizeB7v160006Ev, symObjAddr: 0x9924, symBinAddr: 0x10000DEF4, symSize: 0x18 }
  - { offsetInCU: 0x2839B, offset: 0x2839B, size: 0x8, addend: 0x0, symName: __ZNSt3__122__hash_node_destructorINS_9allocatorINS_11__hash_nodeINS_17__hash_value_typeI7LexTypeNS_12basic_stringIcNS_11char_traitsIcEENS1_IcEEEEEEPvEEEEEC2B7v160006ERSD_b, symObjAddr: 0x993C, symBinAddr: 0x10000DF0C, symSize: 0x38 }
  - { offsetInCU: 0x283E3, offset: 0x283E3, size: 0x8, addend: 0x0, symName: __ZNSt3__110unique_ptrINS_11__hash_nodeINS_17__hash_value_typeI7LexTypeNS_12basic_stringIcNS_11char_traitsIcEENS_9allocatorIcEEEEEEPvEENS_22__hash_node_destructorINS7_ISC_EEEEEC2B7v160006ILb1EvEEPSC_NS_16__dependent_typeINS_27__unique_ptr_deleter_sfinaeISF_EEXT_EE20__good_rval_ref_typeE, symObjAddr: 0x9974, symBinAddr: 0x10000DF44, symSize: 0x48 }
  - { offsetInCU: 0x28434, offset: 0x28434, size: 0x8, addend: 0x0, symName: __ZNSt3__117__compressed_pairIPNS_11__hash_nodeINS_17__hash_value_typeI7LexTypeNS_12basic_stringIcNS_11char_traitsIcEENS_9allocatorIcEEEEEEPvEENS_22__hash_node_destructorINS7_ISC_EEEEEC1B7v160006IRSD_SG_EEOT_OT0_, symObjAddr: 0x99BC, symBinAddr: 0x10000DF8C, symSize: 0x3C }
  - { offsetInCU: 0x2848C, offset: 0x2848C, size: 0x8, addend: 0x0, symName: __ZNSt3__117__compressed_pairIPNS_11__hash_nodeINS_17__hash_value_typeI7LexTypeNS_12basic_stringIcNS_11char_traitsIcEENS_9allocatorIcEEEEEEPvEENS_22__hash_node_destructorINS7_ISC_EEEEEC2B7v160006IRSD_SG_EEOT_OT0_, symObjAddr: 0x99F8, symBinAddr: 0x10000DFC8, symSize: 0x48 }
  - { offsetInCU: 0x284E4, offset: 0x284E4, size: 0x8, addend: 0x0, symName: __ZNSt3__122__compressed_pair_elemIPNS_11__hash_nodeINS_17__hash_value_typeI7LexTypeNS_12basic_stringIcNS_11char_traitsIcEENS_9allocatorIcEEEEEEPvEELi0ELb0EEC2B7v160006IRSD_vEEOT_, symObjAddr: 0x9A40, symBinAddr: 0x10000E010, symSize: 0x24 }
  - { offsetInCU: 0x28526, offset: 0x28526, size: 0x8, addend: 0x0, symName: __ZNSt3__122__compressed_pair_elemINS_22__hash_node_destructorINS_9allocatorINS_11__hash_nodeINS_17__hash_value_typeI7LexTypeNS_12basic_stringIcNS_11char_traitsIcEENS2_IcEEEEEEPvEEEEEELi1ELb0EEC2B7v160006ISF_vEEOT_, symObjAddr: 0x9A64, symBinAddr: 0x10000E034, symSize: 0x24 }
  - { offsetInCU: 0x28568, offset: 0x28568, size: 0x8, addend: 0x0, symName: __ZNSt3__19allocatorINS_11__hash_nodeINS_17__hash_value_typeI7LexTypeNS_12basic_stringIcNS_11char_traitsIcEENS0_IcEEEEEEPvEEE9constructB7v160006INS_4pairIKS3_S8_EEJSG_EEEvPT_DpOT0_, symObjAddr: 0x9A88, symBinAddr: 0x10000E058, symSize: 0x30 }
  - { offsetInCU: 0x285BE, offset: 0x285BE, size: 0x8, addend: 0x0, symName: __ZNSt3__14pairIK7LexTypeNS_12basic_stringIcNS_11char_traitsIcEENS_9allocatorIcEEEEEC1EOS9_, symObjAddr: 0x9AB8, symBinAddr: 0x10000E088, symSize: 0x34 }
  - { offsetInCU: 0x285F2, offset: 0x285F2, size: 0x8, addend: 0x0, symName: __ZNSt3__14pairIK7LexTypeNS_12basic_stringIcNS_11char_traitsIcEENS_9allocatorIcEEEEEC2EOS9_, symObjAddr: 0x9AEC, symBinAddr: 0x10000E0BC, symSize: 0x48 }
  - { offsetInCU: 0x28626, offset: 0x28626, size: 0x8, addend: 0x0, symName: __ZNSt3__112basic_stringIcNS_11char_traitsIcEENS_9allocatorIcEEEC1B7v160006EOS5_, symObjAddr: 0x9B34, symBinAddr: 0x10000E104, symSize: 0x34 }
  - { offsetInCU: 0x2865F, offset: 0x2865F, size: 0x8, addend: 0x0, symName: __ZNSt3__112basic_stringIcNS_11char_traitsIcEENS_9allocatorIcEEEC2B7v160006EOS5_, symObjAddr: 0x9B68, symBinAddr: 0x10000E138, symSize: 0x88 }
  - { offsetInCU: 0x28698, offset: 0x28698, size: 0x8, addend: 0x0, symName: __ZNSt3__112basic_stringIcNS_11char_traitsIcEENS_9allocatorIcEEE14__default_initB7v160006Ev, symObjAddr: 0x9BF0, symBinAddr: 0x10000E1C0, symSize: 0x40 }
  - { offsetInCU: 0x286BE, offset: 0x286BE, size: 0x8, addend: 0x0, symName: __ZNSt3__117__compressed_pairINS_12basic_stringIcNS_11char_traitsIcEENS_9allocatorIcEEE5__repES5_E5firstB7v160006Ev, symObjAddr: 0x9C54, symBinAddr: 0x10000E224, symSize: 0x24 }
  - { offsetInCU: 0x286E4, offset: 0x286E4, size: 0x8, addend: 0x0, symName: __ZNSt3__122__compressed_pair_elemINS_12basic_stringIcNS_11char_traitsIcEENS_9allocatorIcEEE5__repELi0ELb0EE5__getB7v160006Ev, symObjAddr: 0x9C78, symBinAddr: 0x10000E248, symSize: 0x14 }
  - { offsetInCU: 0x2870A, offset: 0x2870A, size: 0x8, addend: 0x0, symName: __ZNSt3__117__hash_value_typeI7LexTypeNS_12basic_stringIcNS_11char_traitsIcEENS_9allocatorIcEEEEE11__get_valueB7v160006Ev, symObjAddr: 0x9C8C, symBinAddr: 0x10000E25C, symSize: 0x24 }
  - { offsetInCU: 0x28730, offset: 0x28730, size: 0x8, addend: 0x0, symName: __ZNSt3__117__compressed_pairIPNS_11__hash_nodeINS_17__hash_value_typeI7LexTypeNS_12basic_stringIcNS_11char_traitsIcEENS_9allocatorIcEEEEEEPvEENS_22__hash_node_destructorINS7_ISC_EEEEE6secondB7v160006Ev, symObjAddr: 0x9CE8, symBinAddr: 0x10000E2B8, symSize: 0x28 }
  - { offsetInCU: 0x28756, offset: 0x28756, size: 0x8, addend: 0x0, symName: __ZNSt3__122__compressed_pair_elemINS_22__hash_node_destructorINS_9allocatorINS_11__hash_nodeINS_17__hash_value_typeI7LexTypeNS_12basic_stringIcNS_11char_traitsIcEENS2_IcEEEEEEPvEEEEEELi1ELb0EE5__getB7v160006Ev, symObjAddr: 0x9D10, symBinAddr: 0x10000E2E0, symSize: 0x14 }
  - { offsetInCU: 0x2877C, offset: 0x2877C, size: 0x8, addend: 0x0, symName: __ZNSt3__117__compressed_pairImNS_22__unordered_map_hasherI7LexTypeNS_17__hash_value_typeIS2_NS_12basic_stringIcNS_11char_traitsIcEENS_9allocatorIcEEEEEENS_4hashIS2_EENS_8equal_toIS2_EELb1EEEE5firstB7v160006Ev, symObjAddr: 0x9D24, symBinAddr: 0x10000E2F4, symSize: 0x24 }
  - { offsetInCU: 0x287A2, offset: 0x287A2, size: 0x8, addend: 0x0, symName: __ZNSt3__117__compressed_pairIfNS_21__unordered_map_equalI7LexTypeNS_17__hash_value_typeIS2_NS_12basic_stringIcNS_11char_traitsIcEENS_9allocatorIcEEEEEENS_8equal_toIS2_EENS_4hashIS2_EELb1EEEE5firstB7v160006Ev, symObjAddr: 0x9D48, symBinAddr: 0x10000E318, symSize: 0x24 }
  - { offsetInCU: 0x287C8, offset: 0x287C8, size: 0x8, addend: 0x0, symName: __ZNSt3__112__hash_tableINS_17__hash_value_typeI7LexTypeNS_12basic_stringIcNS_11char_traitsIcEENS_9allocatorIcEEEEEENS_22__unordered_map_hasherIS2_S9_NS_4hashIS2_EENS_8equal_toIS2_EELb1EEENS_21__unordered_map_equalIS2_S9_SE_SC_Lb1EEENS6_IS9_EEE8__rehashILb1EEEvm, symObjAddr: 0x9D6C, symBinAddr: 0x10000E33C, symSize: 0x1A8 }
  - { offsetInCU: 0x28818, offset: 0x28818, size: 0x8, addend: 0x0, symName: __ZNSt3__112__hash_tableINS_17__hash_value_typeI7LexTypeNS_12basic_stringIcNS_11char_traitsIcEENS_9allocatorIcEEEEEENS_22__unordered_map_hasherIS2_S9_NS_4hashIS2_EENS_8equal_toIS2_EELb1EEENS_21__unordered_map_equalIS2_S9_SE_SC_Lb1EEENS6_IS9_EEE11__do_rehashILb1EEEvm, symObjAddr: 0x9F14, symBinAddr: 0x10000E4E4, symSize: 0x290 }
  - { offsetInCU: 0x288FB, offset: 0x288FB, size: 0x8, addend: 0x0, symName: __ZNSt3__110unique_ptrIA_PNS_16__hash_node_baseIPNS_11__hash_nodeINS_17__hash_value_typeI7LexTypeNS_12basic_stringIcNS_11char_traitsIcEENS_9allocatorIcEEEEEEPvEEEENS_25__bucket_list_deallocatorINS8_ISG_EEEEE11get_deleterB7v160006Ev, symObjAddr: 0xA1B4, symBinAddr: 0x10000E784, symSize: 0x24 }
  - { offsetInCU: 0x28921, offset: 0x28921, size: 0x8, addend: 0x0, symName: __ZNSt3__125__bucket_list_deallocatorINS_9allocatorIPNS_16__hash_node_baseIPNS_11__hash_nodeINS_17__hash_value_typeI7LexTypeNS_12basic_stringIcNS_11char_traitsIcEENS1_IcEEEEEEPvEEEEEEE7__allocB7v160006Ev, symObjAddr: 0xA1D8, symBinAddr: 0x10000E7A8, symSize: 0x24 }
  - { offsetInCU: 0x28947, offset: 0x28947, size: 0x8, addend: 0x0, symName: __ZNSt3__110unique_ptrIA_PNS_16__hash_node_baseIPNS_11__hash_nodeINS_17__hash_value_typeI7LexTypeNS_12basic_stringIcNS_11char_traitsIcEENS_9allocatorIcEEEEEEPvEEEENS_25__bucket_list_deallocatorINS8_ISG_EEEEE5resetB7v160006IPSG_EENS_9enable_ifIXsr28_CheckArrayPointerConversionIT_EE5valueEvE4typeESP_, symObjAddr: 0xA1FC, symBinAddr: 0x10000E7CC, symSize: 0x78 }
  - { offsetInCU: 0x28994, offset: 0x28994, size: 0x8, addend: 0x0, symName: __ZNSt3__116allocator_traitsINS_9allocatorIPNS_16__hash_node_baseIPNS_11__hash_nodeINS_17__hash_value_typeI7LexTypeNS_12basic_stringIcNS_11char_traitsIcEENS1_IcEEEEEEPvEEEEEEE8allocateB7v160006ERSH_m, symObjAddr: 0xA274, symBinAddr: 0x10000E844, symSize: 0x2C }
  - { offsetInCU: 0x289C7, offset: 0x289C7, size: 0x8, addend: 0x0, symName: __ZNSt3__125__bucket_list_deallocatorINS_9allocatorIPNS_16__hash_node_baseIPNS_11__hash_nodeINS_17__hash_value_typeI7LexTypeNS_12basic_stringIcNS_11char_traitsIcEENS1_IcEEEEEEPvEEEEEEE4sizeB7v160006Ev, symObjAddr: 0xA2A0, symBinAddr: 0x10000E870, symSize: 0x24 }
  - { offsetInCU: 0x289ED, offset: 0x289ED, size: 0x8, addend: 0x0, symName: __ZNSt3__117__compressed_pairIPPNS_16__hash_node_baseIPNS_11__hash_nodeINS_17__hash_value_typeI7LexTypeNS_12basic_stringIcNS_11char_traitsIcEENS_9allocatorIcEEEEEEPvEEEENS_25__bucket_list_deallocatorINS8_ISG_EEEEE6secondB7v160006Ev, symObjAddr: 0xA2C4, symBinAddr: 0x10000E894, symSize: 0x28 }
  - { offsetInCU: 0x28A13, offset: 0x28A13, size: 0x8, addend: 0x0, symName: __ZNSt3__122__compressed_pair_elemINS_25__bucket_list_deallocatorINS_9allocatorIPNS_16__hash_node_baseIPNS_11__hash_nodeINS_17__hash_value_typeI7LexTypeNS_12basic_stringIcNS_11char_traitsIcEENS2_IcEEEEEEPvEEEEEEEELi1ELb0EE5__getB7v160006Ev, symObjAddr: 0xA2EC, symBinAddr: 0x10000E8BC, symSize: 0x14 }
  - { offsetInCU: 0x28A39, offset: 0x28A39, size: 0x8, addend: 0x0, symName: __ZNSt3__117__compressed_pairImNS_9allocatorIPNS_16__hash_node_baseIPNS_11__hash_nodeINS_17__hash_value_typeI7LexTypeNS_12basic_stringIcNS_11char_traitsIcEENS1_IcEEEEEEPvEEEEEEE6secondB7v160006Ev, symObjAddr: 0xA300, symBinAddr: 0x10000E8D0, symSize: 0x24 }
  - { offsetInCU: 0x28A5F, offset: 0x28A5F, size: 0x8, addend: 0x0, symName: __ZNSt3__122__compressed_pair_elemINS_9allocatorIPNS_16__hash_node_baseIPNS_11__hash_nodeINS_17__hash_value_typeI7LexTypeNS_12basic_stringIcNS_11char_traitsIcEENS1_IcEEEEEEPvEEEEEELi1ELb1EE5__getB7v160006Ev, symObjAddr: 0xA324, symBinAddr: 0x10000E8F4, symSize: 0x14 }
  - { offsetInCU: 0x28A85, offset: 0x28A85, size: 0x8, addend: 0x0, symName: __ZNSt3__117__compressed_pairIPPNS_16__hash_node_baseIPNS_11__hash_nodeINS_17__hash_value_typeI7LexTypeNS_12basic_stringIcNS_11char_traitsIcEENS_9allocatorIcEEEEEEPvEEEENS_25__bucket_list_deallocatorINS8_ISG_EEEEE5firstB7v160006Ev, symObjAddr: 0xA338, symBinAddr: 0x10000E908, symSize: 0x24 }
  - { offsetInCU: 0x28AAB, offset: 0x28AAB, size: 0x8, addend: 0x0, symName: __ZNSt3__125__bucket_list_deallocatorINS_9allocatorIPNS_16__hash_node_baseIPNS_11__hash_nodeINS_17__hash_value_typeI7LexTypeNS_12basic_stringIcNS_11char_traitsIcEENS1_IcEEEEEEPvEEEEEEEclB7v160006EPSG_, symObjAddr: 0xA35C, symBinAddr: 0x10000E92C, symSize: 0x58 }
  - { offsetInCU: 0x28AE0, offset: 0x28AE0, size: 0x8, addend: 0x0, symName: __ZNSt3__122__compressed_pair_elemIPPNS_16__hash_node_baseIPNS_11__hash_nodeINS_17__hash_value_typeI7LexTypeNS_12basic_stringIcNS_11char_traitsIcEENS_9allocatorIcEEEEEEPvEEEELi0ELb0EE5__getB7v160006Ev, symObjAddr: 0xA3B4, symBinAddr: 0x10000E984, symSize: 0x14 }
  - { offsetInCU: 0x28B06, offset: 0x28B06, size: 0x8, addend: 0x0, symName: __ZNSt3__116allocator_traitsINS_9allocatorIPNS_16__hash_node_baseIPNS_11__hash_nodeINS_17__hash_value_typeI7LexTypeNS_12basic_stringIcNS_11char_traitsIcEENS1_IcEEEEEEPvEEEEEEE10deallocateB7v160006ERSH_PSG_m, symObjAddr: 0xA3C8, symBinAddr: 0x10000E998, symSize: 0x34 }
  - { offsetInCU: 0x28B48, offset: 0x28B48, size: 0x8, addend: 0x0, symName: __ZNSt3__19allocatorIPNS_16__hash_node_baseIPNS_11__hash_nodeINS_17__hash_value_typeI7LexTypeNS_12basic_stringIcNS_11char_traitsIcEENS0_IcEEEEEEPvEEEEE10deallocateB7v160006EPSF_m, symObjAddr: 0xA3FC, symBinAddr: 0x10000E9CC, symSize: 0x40 }
  - { offsetInCU: 0x28B8A, offset: 0x28B8A, size: 0x8, addend: 0x0, symName: __ZNSt3__19allocatorIPNS_16__hash_node_baseIPNS_11__hash_nodeINS_17__hash_value_typeI7LexTypeNS_12basic_stringIcNS_11char_traitsIcEENS0_IcEEEEEEPvEEEEE8allocateB7v160006Em, symObjAddr: 0xA43C, symBinAddr: 0x10000EA0C, symSize: 0x58 }
  - { offsetInCU: 0x28BC9, offset: 0x28BC9, size: 0x8, addend: 0x0, symName: __ZNSt3__116allocator_traitsINS_9allocatorIPNS_16__hash_node_baseIPNS_11__hash_nodeINS_17__hash_value_typeI7LexTypeNS_12basic_stringIcNS_11char_traitsIcEENS1_IcEEEEEEPvEEEEEEE8max_sizeB7v160006ISH_vEEmRKSH_, symObjAddr: 0xA494, symBinAddr: 0x10000EA64, symSize: 0x24 }
  - { offsetInCU: 0x28BF7, offset: 0x28BF7, size: 0x8, addend: 0x0, symName: __ZNKSt3__19allocatorIPNS_16__hash_node_baseIPNS_11__hash_nodeINS_17__hash_value_typeI7LexTypeNS_12basic_stringIcNS_11char_traitsIcEENS0_IcEEEEEEPvEEEEE8max_sizeB7v160006Ev, symObjAddr: 0xA4B8, symBinAddr: 0x10000EA88, symSize: 0x14 }
  - { offsetInCU: 0x28C1D, offset: 0x28C1D, size: 0x8, addend: 0x0, symName: __ZNSt3__117__compressed_pairImNS_9allocatorIPNS_16__hash_node_baseIPNS_11__hash_nodeINS_17__hash_value_typeI7LexTypeNS_12basic_stringIcNS_11char_traitsIcEENS1_IcEEEEEEPvEEEEEEE5firstB7v160006Ev, symObjAddr: 0xA4CC, symBinAddr: 0x10000EA9C, symSize: 0x24 }
  - { offsetInCU: 0x28C43, offset: 0x28C43, size: 0x8, addend: 0x0, symName: __ZNSt3__122__compressed_pair_elemINS_16__hash_node_baseIPNS_11__hash_nodeINS_17__hash_value_typeI7LexTypeNS_12basic_stringIcNS_11char_traitsIcEENS_9allocatorIcEEEEEEPvEEEELi0ELb0EE5__getB7v160006Ev, symObjAddr: 0xA4F0, symBinAddr: 0x10000EAC0, symSize: 0x14 }
  - { offsetInCU: 0x28C69, offset: 0x28C69, size: 0x8, addend: 0x0, symName: __ZNKSt3__117__compressed_pairIPNS_11__hash_nodeINS_17__hash_value_typeI7LexTypeNS_12basic_stringIcNS_11char_traitsIcEENS_9allocatorIcEEEEEEPvEENS_22__hash_node_destructorINS7_ISC_EEEEE5firstB7v160006Ev, symObjAddr: 0xA504, symBinAddr: 0x10000EAD4, symSize: 0x24 }
  - { offsetInCU: 0x28C8F, offset: 0x28C8F, size: 0x8, addend: 0x0, symName: __ZNKSt3__122__compressed_pair_elemIPNS_11__hash_nodeINS_17__hash_value_typeI7LexTypeNS_12basic_stringIcNS_11char_traitsIcEENS_9allocatorIcEEEEEEPvEELi0ELb0EE5__getB7v160006Ev, symObjAddr: 0xA528, symBinAddr: 0x10000EAF8, symSize: 0x14 }
  - { offsetInCU: 0x28CB5, offset: 0x28CB5, size: 0x8, addend: 0x0, symName: __ZNSt3__117__compressed_pairIPNS_11__hash_nodeINS_17__hash_value_typeI7LexTypeNS_12basic_stringIcNS_11char_traitsIcEENS_9allocatorIcEEEEEEPvEENS_22__hash_node_destructorINS7_ISC_EEEEE5firstB7v160006Ev, symObjAddr: 0xA53C, symBinAddr: 0x10000EB0C, symSize: 0x24 }
  - { offsetInCU: 0x28CDB, offset: 0x28CDB, size: 0x8, addend: 0x0, symName: __ZNSt3__122__compressed_pair_elemIPNS_11__hash_nodeINS_17__hash_value_typeI7LexTypeNS_12basic_stringIcNS_11char_traitsIcEENS_9allocatorIcEEEEEEPvEELi0ELb0EE5__getB7v160006Ev, symObjAddr: 0xA560, symBinAddr: 0x10000EB30, symSize: 0x14 }
  - { offsetInCU: 0x28D01, offset: 0x28D01, size: 0x8, addend: 0x0, symName: __ZNSt3__110unique_ptrINS_11__hash_nodeINS_17__hash_value_typeI7LexTypeNS_12basic_stringIcNS_11char_traitsIcEENS_9allocatorIcEEEEEEPvEENS_22__hash_node_destructorINS7_ISC_EEEEED2B7v160006Ev, symObjAddr: 0xA574, symBinAddr: 0x10000EB44, symSize: 0x30 }
  - { offsetInCU: 0x28D2B, offset: 0x28D2B, size: 0x8, addend: 0x0, symName: __ZNSt3__110unique_ptrINS_11__hash_nodeINS_17__hash_value_typeI7LexTypeNS_12basic_stringIcNS_11char_traitsIcEENS_9allocatorIcEEEEEEPvEENS_22__hash_node_destructorINS7_ISC_EEEEE5resetB7v160006EPSC_, symObjAddr: 0xA5A4, symBinAddr: 0x10000EB74, symSize: 0x78 }
  - { offsetInCU: 0x28D6F, offset: 0x28D6F, size: 0x8, addend: 0x0, symName: __ZNSt3__122__hash_node_destructorINS_9allocatorINS_11__hash_nodeINS_17__hash_value_typeI7LexTypeNS_12basic_stringIcNS_11char_traitsIcEENS1_IcEEEEEEPvEEEEEclB7v160006EPSC_, symObjAddr: 0xA61C, symBinAddr: 0x10000EBEC, symSize: 0x98 }
  - { offsetInCU: 0x28DA4, offset: 0x28DA4, size: 0x8, addend: 0x0, symName: __ZNSt3__116allocator_traitsINS_9allocatorINS_11__hash_nodeINS_17__hash_value_typeI7LexTypeNS_12basic_stringIcNS_11char_traitsIcEENS1_IcEEEEEEPvEEEEE7destroyB7v160006INS_4pairIKS4_S9_EEvvEEvRSD_PT_, symObjAddr: 0xA6B4, symBinAddr: 0x10000EC84, symSize: 0x28 }
  - { offsetInCU: 0x28DDE, offset: 0x28DDE, size: 0x8, addend: 0x0, symName: __ZNSt3__116allocator_traitsINS_9allocatorINS_11__hash_nodeINS_17__hash_value_typeI7LexTypeNS_12basic_stringIcNS_11char_traitsIcEENS1_IcEEEEEEPvEEEEE10deallocateB7v160006ERSD_PSC_m, symObjAddr: 0xA6DC, symBinAddr: 0x10000ECAC, symSize: 0x34 }
  - { offsetInCU: 0x28E20, offset: 0x28E20, size: 0x8, addend: 0x0, symName: __ZNSt3__19allocatorINS_11__hash_nodeINS_17__hash_value_typeI7LexTypeNS_12basic_stringIcNS_11char_traitsIcEENS0_IcEEEEEEPvEEE10deallocateB7v160006EPSB_m, symObjAddr: 0xA710, symBinAddr: 0x10000ECE0, symSize: 0x44 }
  - { offsetInCU: 0x28E62, offset: 0x28E62, size: 0x8, addend: 0x0, symName: __ZNSt3__115__hash_iteratorIPNS_11__hash_nodeINS_17__hash_value_typeI7LexTypeNS_12basic_stringIcNS_11char_traitsIcEENS_9allocatorIcEEEEEEPvEEEC2B7v160006EPNS_16__hash_node_baseISD_EEPKv, symObjAddr: 0xA754, symBinAddr: 0x10000ED24, symSize: 0x24 }
  - { offsetInCU: 0x28EAA, offset: 0x28EAA, size: 0x8, addend: 0x0, symName: __ZNSt3__14pairINS_15__hash_iteratorIPNS_11__hash_nodeINS_17__hash_value_typeI7LexTypeNS_12basic_stringIcNS_11char_traitsIcEENS_9allocatorIcEEEEEEPvEEEEbEC2B7v160006ISF_RbLSC_0EEEOT_OT0_, symObjAddr: 0xA778, symBinAddr: 0x10000ED48, symSize: 0x38 }
  - { offsetInCU: 0x28F08, offset: 0x28F08, size: 0x8, addend: 0x0, symName: __ZNSt3__14pairINS_19__hash_map_iteratorINS_15__hash_iteratorIPNS_11__hash_nodeINS_17__hash_value_typeI7LexTypeNS_12basic_stringIcNS_11char_traitsIcEENS_9allocatorIcEEEEEEPvEEEEEEbEC2B7v160006ISG_bLSD_0EEEONS0_IT_T0_EE, symObjAddr: 0xA7B0, symBinAddr: 0x10000ED80, symSize: 0x50 }
  - { offsetInCU: 0x28F59, offset: 0x28F59, size: 0x8, addend: 0x0, symName: __ZNSt3__119__hash_map_iteratorINS_15__hash_iteratorIPNS_11__hash_nodeINS_17__hash_value_typeI7LexTypeNS_12basic_stringIcNS_11char_traitsIcEENS_9allocatorIcEEEEEEPvEEEEEC1B7v160006ESF_, symObjAddr: 0xA800, symBinAddr: 0x10000EDD0, symSize: 0x34 }
  - { offsetInCU: 0x28F92, offset: 0x28F92, size: 0x8, addend: 0x0, symName: __ZNSt3__119__hash_map_iteratorINS_15__hash_iteratorIPNS_11__hash_nodeINS_17__hash_value_typeI7LexTypeNS_12basic_stringIcNS_11char_traitsIcEENS_9allocatorIcEEEEEEPvEEEEEC2B7v160006ESF_, symObjAddr: 0xA834, symBinAddr: 0x10000EE04, symSize: 0x20 }
  - { offsetInCU: 0x28FCB, offset: 0x28FCB, size: 0x8, addend: 0x0, symName: __ZNSt3__14pairIK7LexTypeNS_12basic_stringIcNS_11char_traitsIcEENS_9allocatorIcEEEEEC2B7v160006IS1_RA8_KcLPv0EEEOT_OT0_, symObjAddr: 0xA854, symBinAddr: 0x10000EE24, symSize: 0x48 }
  - { offsetInCU: 0x29029, offset: 0x29029, size: 0x8, addend: 0x0, symName: __ZNSt3__14pairIK7LexTypeNS_12basic_stringIcNS_11char_traitsIcEENS_9allocatorIcEEEEED2Ev, symObjAddr: 0xA89C, symBinAddr: 0x10000EE6C, symSize: 0x30 }
  - { offsetInCU: 0x29055, offset: 0x29055, size: 0x8, addend: 0x0, symName: __ZNSt3__14pairIK7LexTypeNS_12basic_stringIcNS_11char_traitsIcEENS_9allocatorIcEEEEEC2B7v160006IS1_RA6_KcLPv0EEEOT_OT0_, symObjAddr: 0xA8CC, symBinAddr: 0x10000EE9C, symSize: 0x48 }
  - { offsetInCU: 0x290B3, offset: 0x290B3, size: 0x8, addend: 0x0, symName: __ZNSt3__14pairIK7LexTypeNS_12basic_stringIcNS_11char_traitsIcEENS_9allocatorIcEEEEEC2B7v160006IS1_RA10_KcLPv0EEEOT_OT0_, symObjAddr: 0xA914, symBinAddr: 0x10000EEE4, symSize: 0x48 }
  - { offsetInCU: 0x29111, offset: 0x29111, size: 0x8, addend: 0x0, symName: __ZNSt3__14pairIK7LexTypeNS_12basic_stringIcNS_11char_traitsIcEENS_9allocatorIcEEEEEC2B7v160006IS1_RA5_KcLPv0EEEOT_OT0_, symObjAddr: 0xA95C, symBinAddr: 0x10000EF2C, symSize: 0x48 }
  - { offsetInCU: 0x2916F, offset: 0x2916F, size: 0x8, addend: 0x0, symName: __ZNSt3__14pairIK7LexTypeNS_12basic_stringIcNS_11char_traitsIcEENS_9allocatorIcEEEEEC2B7v160006IS1_RA4_KcLPv0EEEOT_OT0_, symObjAddr: 0xA9A4, symBinAddr: 0x10000EF74, symSize: 0x48 }
  - { offsetInCU: 0x291CD, offset: 0x291CD, size: 0x8, addend: 0x0, symName: __ZNSt3__14pairIK7LexTypeNS_12basic_stringIcNS_11char_traitsIcEENS_9allocatorIcEEEEEC2B7v160006IS1_RA3_KcLPv0EEEOT_OT0_, symObjAddr: 0xA9EC, symBinAddr: 0x10000EFBC, symSize: 0x48 }
  - { offsetInCU: 0x2922B, offset: 0x2922B, size: 0x8, addend: 0x0, symName: __ZNSt3__14pairIK7LexTypeNS_12basic_stringIcNS_11char_traitsIcEENS_9allocatorIcEEEEEC2B7v160006IS1_RA7_KcLPv0EEEOT_OT0_, symObjAddr: 0xAA34, symBinAddr: 0x10000F004, symSize: 0x48 }
  - { offsetInCU: 0x29289, offset: 0x29289, size: 0x8, addend: 0x0, symName: __ZNSt3__14pairIKNS_12basic_stringIcNS_11char_traitsIcEENS_9allocatorIcEEEE7LexTypeEC2B7v160006IRA2_KcS8_LPv0EEEOT_OT0_, symObjAddr: 0xAA7C, symBinAddr: 0x10000F04C, symSize: 0x44 }
  - { offsetInCU: 0x292E7, offset: 0x292E7, size: 0x8, addend: 0x0, symName: __ZN6ParserC2ENSt3__16vectorI7MyTokenNS0_9allocatorIS2_EEEE, symObjAddr: 0xAAC0, symBinAddr: 0x10000F090, symSize: 0x6C }
  - { offsetInCU: 0x29321, offset: 0x29321, size: 0x8, addend: 0x0, symName: __ZNSt3__118basic_stringstreamIcNS_11char_traitsIcEENS_9allocatorIcEEEC1B7v160006Ev, symObjAddr: 0xAB2C, symBinAddr: 0x10000F0FC, symSize: 0x104 }
  - { offsetInCU: 0x2934B, offset: 0x2934B, size: 0x8, addend: 0x0, symName: __ZNSt3__19basic_iosIcNS_11char_traitsIcEEEC2B7v160006Ev, symObjAddr: 0xAC30, symBinAddr: 0x10000F200, symSize: 0x44 }
  - { offsetInCU: 0x29375, offset: 0x29375, size: 0x8, addend: 0x0, symName: __ZNSt3__114basic_iostreamIcNS_11char_traitsIcEEEC2B7v160006EPNS_15basic_streambufIcS2_EE, symObjAddr: 0xAC74, symBinAddr: 0x10000F244, symSize: 0xAC }
  - { offsetInCU: 0x293BB, offset: 0x293BB, size: 0x8, addend: 0x0, symName: __ZNSt3__115basic_stringbufIcNS_11char_traitsIcEENS_9allocatorIcEEEC1B7v160006Ej, symObjAddr: 0xAD20, symBinAddr: 0x10000F2F0, symSize: 0x34 }
  - { offsetInCU: 0x293F3, offset: 0x293F3, size: 0x8, addend: 0x0, symName: __ZNSt3__18ios_baseC2B7v160006Ev, symObjAddr: 0xAD54, symBinAddr: 0x10000F324, symSize: 0x24 }
  - { offsetInCU: 0x2941D, offset: 0x2941D, size: 0x8, addend: 0x0, symName: __ZNSt3__113basic_istreamIcNS_11char_traitsIcEEEC2B7v160006EPNS_15basic_streambufIcS2_EE, symObjAddr: 0xAD78, symBinAddr: 0x10000F348, symSize: 0x64 }
  - { offsetInCU: 0x29462, offset: 0x29462, size: 0x8, addend: 0x0, symName: __ZNSt3__113basic_ostreamIcNS_11char_traitsIcEEEC2B7v160006Ev, symObjAddr: 0xADDC, symBinAddr: 0x10000F3AC, symSize: 0x34 }
  - { offsetInCU: 0x29499, offset: 0x29499, size: 0x8, addend: 0x0, symName: __ZNSt3__19basic_iosIcNS_11char_traitsIcEEE4initB7v160006EPNS_15basic_streambufIcS2_EE, symObjAddr: 0xAE10, symBinAddr: 0x10000F3E0, symSize: 0x44 }
  - { offsetInCU: 0x294D0, offset: 0x294D0, size: 0x8, addend: 0x0, symName: __ZNSt3__111char_traitsIcE3eofEv, symObjAddr: 0xAE54, symBinAddr: 0x10000F424, symSize: 0x8 }
  - { offsetInCU: 0x294E4, offset: 0x294E4, size: 0x8, addend: 0x0, symName: __ZNSt3__115basic_stringbufIcNS_11char_traitsIcEENS_9allocatorIcEEEC2B7v160006Ej, symObjAddr: 0xAE5C, symBinAddr: 0x10000F42C, symSize: 0x60 }
  - { offsetInCU: 0x2951C, offset: 0x2951C, size: 0x8, addend: 0x0, symName: __ZN6Parser7programEv, symObjAddr: 0xAEBC, symBinAddr: 0x10000F48C, symSize: 0x360 }
  - { offsetInCU: 0x29581, offset: 0x29581, size: 0x8, addend: 0x0, symName: __ZN8Treenode6createE12Treenodecatei, symObjAddr: 0xB21C, symBinAddr: 0x10000F7EC, symSize: 0xA4 }
  - { offsetInCU: 0x295C4, offset: 0x295C4, size: 0x8, addend: 0x0, symName: __ZN6Parser12currentTokenEv, symObjAddr: 0xB2C0, symBinAddr: 0x10000F890, symSize: 0x28 }
  - { offsetInCU: 0x295EA, offset: 0x295EA, size: 0x8, addend: 0x0, symName: __ZN6Parser11programHeadEv, symObjAddr: 0xB2E8, symBinAddr: 0x10000F8B8, symSize: 0x114 }
  - { offsetInCU: 0x29620, offset: 0x29620, size: 0x8, addend: 0x0, symName: __ZNKSt3__110unique_ptrI8TreenodeNS_14default_deleteIS1_EEEcvbB7v160006Ev, symObjAddr: 0xB3FC, symBinAddr: 0x10000F9CC, symSize: 0x34 }
  - { offsetInCU: 0x29646, offset: 0x29646, size: 0x8, addend: 0x0, symName: __ZN6Parser8logErrorE9ErrorTypeRKNSt3__112basic_stringIcNS1_11char_traitsIcEENS1_9allocatorIcEEEE, symObjAddr: 0xB430, symBinAddr: 0x10000FA00, symSize: 0x158 }
  - { offsetInCU: 0x2968A, offset: 0x2968A, size: 0x8, addend: 0x0, symName: __ZNKSt3__110unique_ptrI8TreenodeNS_14default_deleteIS1_EEEptB7v160006Ev, symObjAddr: 0xB588, symBinAddr: 0x10000FB58, symSize: 0x28 }
  - { offsetInCU: 0x296B0, offset: 0x296B0, size: 0x8, addend: 0x0, symName: __ZN8Treenode8addChildEiNSt3__110unique_ptrIS_NS0_14default_deleteIS_EEEE, symObjAddr: 0xB5B0, symBinAddr: 0x10000FB80, symSize: 0x70 }
  - { offsetInCU: 0x296F5, offset: 0x296F5, size: 0x8, addend: 0x0, symName: __ZNSt3__110unique_ptrI8TreenodeNS_14default_deleteIS1_EEEC1B7v160006EOS4_, symObjAddr: 0xB620, symBinAddr: 0x10000FBF0, symSize: 0x34 }
  - { offsetInCU: 0x2972D, offset: 0x2972D, size: 0x8, addend: 0x0, symName: __ZN6Parser11declarePartEv, symObjAddr: 0xB654, symBinAddr: 0x10000FC24, symSize: 0x3A8 }
  - { offsetInCU: 0x297B0, offset: 0x297B0, size: 0x8, addend: 0x0, symName: __ZN6Parser11programBodyEv, symObjAddr: 0xB9FC, symBinAddr: 0x10000FFCC, symSize: 0x110 }
  - { offsetInCU: 0x297E6, offset: 0x297E6, size: 0x8, addend: 0x0, symName: __ZN6Parser5matchE7LexType, symObjAddr: 0xBB0C, symBinAddr: 0x1000100DC, symSize: 0x1C0 }
  - { offsetInCU: 0x2981B, offset: 0x2981B, size: 0x8, addend: 0x0, symName: __ZN8TreenodeC1Ev, symObjAddr: 0xBD1C, symBinAddr: 0x1000102EC, symSize: 0x2C }
  - { offsetInCU: 0x29845, offset: 0x29845, size: 0x8, addend: 0x0, symName: __ZNSt3__110unique_ptrI8TreenodeNS_14default_deleteIS1_EEEC1B7v160006ILb1EvEEPS1_, symObjAddr: 0xBD48, symBinAddr: 0x100010318, symSize: 0x34 }
  - { offsetInCU: 0x29888, offset: 0x29888, size: 0x8, addend: 0x0, symName: __ZN8TreenodeC2Ev, symObjAddr: 0xBD7C, symBinAddr: 0x10001034C, symSize: 0xA4 }
  - { offsetInCU: 0x298B2, offset: 0x298B2, size: 0x8, addend: 0x0, symName: __ZNSt3__110unique_ptrI8TreenodeNS_14default_deleteIS1_EEEC1B7v160006ILb1EvEEv, symObjAddr: 0xBE20, symBinAddr: 0x1000103F0, symSize: 0x2C }
  - { offsetInCU: 0x298E7, offset: 0x298E7, size: 0x8, addend: 0x0, symName: __ZNSt3__16vectorINS_12basic_stringIcNS_11char_traitsIcEENS_9allocatorIcEEEENS4_IS6_EEEC1B7v160006Ev, symObjAddr: 0xBE4C, symBinAddr: 0x10001041C, symSize: 0x2C }
  - { offsetInCU: 0x29911, offset: 0x29911, size: 0x8, addend: 0x0, symName: __ZNSt3__16vectorIP12SymbolsTableNS_9allocatorIS2_EEEC1B7v160006Ev, symObjAddr: 0xBE78, symBinAddr: 0x100010448, symSize: 0x2C }
  - { offsetInCU: 0x2993B, offset: 0x2993B, size: 0x8, addend: 0x0, symName: __ZNSt3__110unique_ptrI8TreenodeNS_14default_deleteIS1_EEEC2B7v160006ILb1EvEEv, symObjAddr: 0xBEA4, symBinAddr: 0x100010474, symSize: 0x3C }
  - { offsetInCU: 0x29976, offset: 0x29976, size: 0x8, addend: 0x0, symName: __ZNSt3__117__compressed_pairIP8TreenodeNS_14default_deleteIS1_EEEC1B7v160006INS_16__value_init_tagES7_EEOT_OT0_, symObjAddr: 0xBEE0, symBinAddr: 0x1000104B0, symSize: 0x3C }
  - { offsetInCU: 0x299CE, offset: 0x299CE, size: 0x8, addend: 0x0, symName: __ZNSt3__117__compressed_pairIP8TreenodeNS_14default_deleteIS1_EEEC2B7v160006INS_16__value_init_tagES7_EEOT_OT0_, symObjAddr: 0xBF1C, symBinAddr: 0x1000104EC, symSize: 0x3C }
  - { offsetInCU: 0x29A26, offset: 0x29A26, size: 0x8, addend: 0x0, symName: __ZNSt3__122__compressed_pair_elemIP8TreenodeLi0ELb0EEC2B7v160006ENS_16__value_init_tagE, symObjAddr: 0xBF58, symBinAddr: 0x100010528, symSize: 0x18 }
  - { offsetInCU: 0x29A5A, offset: 0x29A5A, size: 0x8, addend: 0x0, symName: __ZNSt3__122__compressed_pair_elemINS_14default_deleteI8TreenodeEELi1ELb1EEC2B7v160006ENS_16__value_init_tagE, symObjAddr: 0xBF70, symBinAddr: 0x100010540, symSize: 0x14 }
  - { offsetInCU: 0x29A8E, offset: 0x29A8E, size: 0x8, addend: 0x0, symName: __ZNSt3__16vectorINS_12basic_stringIcNS_11char_traitsIcEENS_9allocatorIcEEEENS4_IS6_EEEC2B7v160006Ev, symObjAddr: 0xBF84, symBinAddr: 0x100010554, symSize: 0x58 }
  - { offsetInCU: 0x29AC4, offset: 0x29AC4, size: 0x8, addend: 0x0, symName: __ZNSt3__117__compressed_pairIPNS_12basic_stringIcNS_11char_traitsIcEENS_9allocatorIcEEEENS4_IS6_EEEC1B7v160006IDnNS_18__default_init_tagEEEOT_OT0_, symObjAddr: 0xBFDC, symBinAddr: 0x1000105AC, symSize: 0x3C }
  - { offsetInCU: 0x29B1C, offset: 0x29B1C, size: 0x8, addend: 0x0, symName: __ZNSt3__117__compressed_pairIPNS_12basic_stringIcNS_11char_traitsIcEENS_9allocatorIcEEEENS4_IS6_EEEC2B7v160006IDnNS_18__default_init_tagEEEOT_OT0_, symObjAddr: 0xC028, symBinAddr: 0x1000105F8, symSize: 0x40 }
  - { offsetInCU: 0x29B74, offset: 0x29B74, size: 0x8, addend: 0x0, symName: __ZNSt3__122__compressed_pair_elemIPNS_12basic_stringIcNS_11char_traitsIcEENS_9allocatorIcEEEELi0ELb0EEC2B7v160006IDnvEEOT_, symObjAddr: 0xC068, symBinAddr: 0x100010638, symSize: 0x1C }
  - { offsetInCU: 0x29BB6, offset: 0x29BB6, size: 0x8, addend: 0x0, symName: __ZNSt3__122__compressed_pair_elemINS_9allocatorINS_12basic_stringIcNS_11char_traitsIcEENS1_IcEEEEEELi1ELb1EEC2B7v160006ENS_18__default_init_tagE, symObjAddr: 0xC084, symBinAddr: 0x100010654, symSize: 0x2C }
  - { offsetInCU: 0x29BEA, offset: 0x29BEA, size: 0x8, addend: 0x0, symName: __ZNSt3__19allocatorINS_12basic_stringIcNS_11char_traitsIcEENS0_IcEEEEEC2B7v160006Ev, symObjAddr: 0xC0B0, symBinAddr: 0x100010680, symSize: 0x2C }
  - { offsetInCU: 0x29C14, offset: 0x29C14, size: 0x8, addend: 0x0, symName: __ZNSt3__116__non_trivial_ifILb1ENS_9allocatorINS_12basic_stringIcNS_11char_traitsIcEENS1_IcEEEEEEEC2B7v160006Ev, symObjAddr: 0xC0DC, symBinAddr: 0x1000106AC, symSize: 0x14 }
  - { offsetInCU: 0x29C3E, offset: 0x29C3E, size: 0x8, addend: 0x0, symName: __ZNSt3__16vectorIP12SymbolsTableNS_9allocatorIS2_EEEC2B7v160006Ev, symObjAddr: 0xC0F0, symBinAddr: 0x1000106C0, symSize: 0x58 }
  - { offsetInCU: 0x29C68, offset: 0x29C68, size: 0x8, addend: 0x0, symName: __ZNSt3__117__compressed_pairIPP12SymbolsTableNS_9allocatorIS2_EEEC1B7v160006IDnNS_18__default_init_tagEEEOT_OT0_, symObjAddr: 0xC148, symBinAddr: 0x100010718, symSize: 0x3C }
  - { offsetInCU: 0x29CC0, offset: 0x29CC0, size: 0x8, addend: 0x0, symName: __ZNSt3__117__compressed_pairIPP12SymbolsTableNS_9allocatorIS2_EEEC2B7v160006IDnNS_18__default_init_tagEEEOT_OT0_, symObjAddr: 0xC194, symBinAddr: 0x100010764, symSize: 0x40 }
  - { offsetInCU: 0x29D18, offset: 0x29D18, size: 0x8, addend: 0x0, symName: __ZNSt3__122__compressed_pair_elemIPP12SymbolsTableLi0ELb0EEC2B7v160006IDnvEEOT_, symObjAddr: 0xC1D4, symBinAddr: 0x1000107A4, symSize: 0x1C }
  - { offsetInCU: 0x29D5A, offset: 0x29D5A, size: 0x8, addend: 0x0, symName: __ZNSt3__122__compressed_pair_elemINS_9allocatorIP12SymbolsTableEELi1ELb1EEC2B7v160006ENS_18__default_init_tagE, symObjAddr: 0xC1F0, symBinAddr: 0x1000107C0, symSize: 0x2C }
  - { offsetInCU: 0x29D8E, offset: 0x29D8E, size: 0x8, addend: 0x0, symName: __ZNSt3__19allocatorIP12SymbolsTableEC2B7v160006Ev, symObjAddr: 0xC21C, symBinAddr: 0x1000107EC, symSize: 0x2C }
  - { offsetInCU: 0x29DB8, offset: 0x29DB8, size: 0x8, addend: 0x0, symName: __ZNSt3__116__non_trivial_ifILb1ENS_9allocatorIP12SymbolsTableEEEC2B7v160006Ev, symObjAddr: 0xC248, symBinAddr: 0x100010818, symSize: 0x14 }
  - { offsetInCU: 0x29DE2, offset: 0x29DE2, size: 0x8, addend: 0x0, symName: __ZNSt3__110unique_ptrI8TreenodeNS_14default_deleteIS1_EEEC2B7v160006ILb1EvEEPS1_, symObjAddr: 0xC25C, symBinAddr: 0x10001082C, symSize: 0x44 }
  - { offsetInCU: 0x29E25, offset: 0x29E25, size: 0x8, addend: 0x0, symName: __ZNSt3__117__compressed_pairIP8TreenodeNS_14default_deleteIS1_EEEC1B7v160006IRS2_NS_16__value_init_tagEEEOT_OT0_, symObjAddr: 0xC2A0, symBinAddr: 0x100010870, symSize: 0x3C }
  - { offsetInCU: 0x29E7D, offset: 0x29E7D, size: 0x8, addend: 0x0, symName: __ZNSt3__117__compressed_pairIP8TreenodeNS_14default_deleteIS1_EEEC2B7v160006IRS2_NS_16__value_init_tagEEEOT_OT0_, symObjAddr: 0xC2DC, symBinAddr: 0x1000108AC, symSize: 0x40 }
  - { offsetInCU: 0x29ED5, offset: 0x29ED5, size: 0x8, addend: 0x0, symName: __ZNSt3__122__compressed_pair_elemIP8TreenodeLi0ELb0EEC2B7v160006IRS2_vEEOT_, symObjAddr: 0xC31C, symBinAddr: 0x1000108EC, symSize: 0x24 }
  - { offsetInCU: 0x29F17, offset: 0x29F17, size: 0x8, addend: 0x0, symName: __ZNSt3__16vectorI7MyTokenNS_9allocatorIS1_EEEixB7v160006Em, symObjAddr: 0xC340, symBinAddr: 0x100010910, symSize: 0x24 }
  - { offsetInCU: 0x29F4E, offset: 0x29F4E, size: 0x8, addend: 0x0, symName: __ZN8Treenode7addNameERKNSt3__112basic_stringIcNS0_11char_traitsIcEENS0_9allocatorIcEEEE, symObjAddr: 0xC364, symBinAddr: 0x100010934, symSize: 0x3C }
  - { offsetInCU: 0x29F83, offset: 0x29F83, size: 0x8, addend: 0x0, symName: __ZNSt3__16vectorINS_12basic_stringIcNS_11char_traitsIcEENS_9allocatorIcEEEENS4_IS6_EEE9push_backB7v160006ERKS6_, symObjAddr: 0xC3A0, symBinAddr: 0x100010970, symSize: 0x6C }
  - { offsetInCU: 0x29FBA, offset: 0x29FBA, size: 0x8, addend: 0x0, symName: __ZNSt3__16vectorINS_12basic_stringIcNS_11char_traitsIcEENS_9allocatorIcEEEENS4_IS6_EEE9__end_capB7v160006Ev, symObjAddr: 0xC40C, symBinAddr: 0x1000109DC, symSize: 0x28 }
  - { offsetInCU: 0x29FE0, offset: 0x29FE0, size: 0x8, addend: 0x0, symName: __ZNSt3__16vectorINS_12basic_stringIcNS_11char_traitsIcEENS_9allocatorIcEEEENS4_IS6_EEE22__construct_one_at_endB7v160006IJRKS6_EEEvDpOT_, symObjAddr: 0xC434, symBinAddr: 0x100010A04, symSize: 0x90 }
  - { offsetInCU: 0x2A02F, offset: 0x2A02F, size: 0x8, addend: 0x0, symName: __ZNSt3__16vectorINS_12basic_stringIcNS_11char_traitsIcEENS_9allocatorIcEEEENS4_IS6_EEE21__push_back_slow_pathIRKS6_EEvOT_, symObjAddr: 0xC4C4, symBinAddr: 0x100010A94, symSize: 0xD8 }
  - { offsetInCU: 0x2A08D, offset: 0x2A08D, size: 0x8, addend: 0x0, symName: __ZNSt3__117__compressed_pairIPNS_12basic_stringIcNS_11char_traitsIcEENS_9allocatorIcEEEENS4_IS6_EEE5firstB7v160006Ev, symObjAddr: 0xC59C, symBinAddr: 0x100010B6C, symSize: 0x24 }
  - { offsetInCU: 0x2A0B3, offset: 0x2A0B3, size: 0x8, addend: 0x0, symName: __ZNSt3__122__compressed_pair_elemIPNS_12basic_stringIcNS_11char_traitsIcEENS_9allocatorIcEEEELi0ELb0EE5__getB7v160006Ev, symObjAddr: 0xC5C0, symBinAddr: 0x100010B90, symSize: 0x14 }
  - { offsetInCU: 0x2A0F5, offset: 0x2A0F5, size: 0x8, addend: 0x0, symName: __ZNSt3__16vectorINS_12basic_stringIcNS_11char_traitsIcEENS_9allocatorIcEEEENS4_IS6_EEE21_ConstructTransactionC1B7v160006ERS8_m, symObjAddr: 0xC5D4, symBinAddr: 0x100010BA4, symSize: 0x3C }
  - { offsetInCU: 0x2A13D, offset: 0x2A13D, size: 0x8, addend: 0x0, symName: __ZNSt3__116allocator_traitsINS_9allocatorINS_12basic_stringIcNS_11char_traitsIcEENS1_IcEEEEEEE9constructB7v160006IS6_JRKS6_EvEEvRS7_PT_DpOT0_, symObjAddr: 0xC610, symBinAddr: 0x100010BE0, symSize: 0x34 }
  - { offsetInCU: 0x2A194, offset: 0x2A194, size: 0x8, addend: 0x0, symName: __ZNSt3__16vectorINS_12basic_stringIcNS_11char_traitsIcEENS_9allocatorIcEEEENS4_IS6_EEE7__allocB7v160006Ev, symObjAddr: 0xC644, symBinAddr: 0x100010C14, symSize: 0x28 }
  - { offsetInCU: 0x2A1BA, offset: 0x2A1BA, size: 0x8, addend: 0x0, symName: __ZNSt3__16vectorINS_12basic_stringIcNS_11char_traitsIcEENS_9allocatorIcEEEENS4_IS6_EEE21_ConstructTransactionD1B7v160006Ev, symObjAddr: 0xC680, symBinAddr: 0x100010C50, symSize: 0x2C }
  - { offsetInCU: 0x2A1E4, offset: 0x2A1E4, size: 0x8, addend: 0x0, symName: __ZNSt3__16vectorINS_12basic_stringIcNS_11char_traitsIcEENS_9allocatorIcEEEENS4_IS6_EEE21_ConstructTransactionC2B7v160006ERS8_m, symObjAddr: 0xC6AC, symBinAddr: 0x100010C7C, symSize: 0x4C }
  - { offsetInCU: 0x2A22C, offset: 0x2A22C, size: 0x8, addend: 0x0, symName: __ZNSt3__19allocatorINS_12basic_stringIcNS_11char_traitsIcEENS0_IcEEEEE9constructB7v160006IS5_JRKS5_EEEvPT_DpOT0_, symObjAddr: 0xC6F8, symBinAddr: 0x100010CC8, symSize: 0x30 }
  - { offsetInCU: 0x2A282, offset: 0x2A282, size: 0x8, addend: 0x0, symName: __ZNSt3__117__compressed_pairIPNS_12basic_stringIcNS_11char_traitsIcEENS_9allocatorIcEEEENS4_IS6_EEE6secondB7v160006Ev, symObjAddr: 0xC728, symBinAddr: 0x100010CF8, symSize: 0x24 }
  - { offsetInCU: 0x2A2A8, offset: 0x2A2A8, size: 0x8, addend: 0x0, symName: __ZNSt3__122__compressed_pair_elemINS_9allocatorINS_12basic_stringIcNS_11char_traitsIcEENS1_IcEEEEEELi1ELb1EE5__getB7v160006Ev, symObjAddr: 0xC74C, symBinAddr: 0x100010D1C, symSize: 0x14 }
  - { offsetInCU: 0x2A2CE, offset: 0x2A2CE, size: 0x8, addend: 0x0, symName: __ZNSt3__16vectorINS_12basic_stringIcNS_11char_traitsIcEENS_9allocatorIcEEEENS4_IS6_EEE21_ConstructTransactionD2B7v160006Ev, symObjAddr: 0xC760, symBinAddr: 0x100010D30, symSize: 0x20 }
  - { offsetInCU: 0x2A2F8, offset: 0x2A2F8, size: 0x8, addend: 0x0, symName: __ZNKSt3__16vectorINS_12basic_stringIcNS_11char_traitsIcEENS_9allocatorIcEEEENS4_IS6_EEE11__recommendB7v160006Em, symObjAddr: 0xC780, symBinAddr: 0x100010D50, symSize: 0xB4 }
  - { offsetInCU: 0x2A34D, offset: 0x2A34D, size: 0x8, addend: 0x0, symName: __ZNKSt3__16vectorINS_12basic_stringIcNS_11char_traitsIcEENS_9allocatorIcEEEENS4_IS6_EEE4sizeB7v160006Ev, symObjAddr: 0xC834, symBinAddr: 0x100010E04, symSize: 0x28 }
  - { offsetInCU: 0x2A373, offset: 0x2A373, size: 0x8, addend: 0x0, symName: __ZNSt3__114__split_bufferINS_12basic_stringIcNS_11char_traitsIcEENS_9allocatorIcEEEERNS4_IS6_EEEC1EmmS8_, symObjAddr: 0xC85C, symBinAddr: 0x100010E2C, symSize: 0x44 }
  - { offsetInCU: 0x2A3C9, offset: 0x2A3C9, size: 0x8, addend: 0x0, symName: __ZNSt3__114__split_bufferINS_12basic_stringIcNS_11char_traitsIcEENS_9allocatorIcEEEERNS4_IS6_EEED1Ev, symObjAddr: 0xC9B8, symBinAddr: 0x100010F88, symSize: 0x2C }
  - { offsetInCU: 0x2A3F5, offset: 0x2A3F5, size: 0x8, addend: 0x0, symName: __ZNKSt3__16vectorINS_12basic_stringIcNS_11char_traitsIcEENS_9allocatorIcEEEENS4_IS6_EEE8max_sizeEv, symObjAddr: 0xC9E4, symBinAddr: 0x100010FB4, symSize: 0x60 }
  - { offsetInCU: 0x2A41D, offset: 0x2A41D, size: 0x8, addend: 0x0, symName: __ZNKSt3__16vectorINS_12basic_stringIcNS_11char_traitsIcEENS_9allocatorIcEEEENS4_IS6_EEE20__throw_length_errorB7v160006Ev, symObjAddr: 0xCA44, symBinAddr: 0x100011014, symSize: 0x1C }
  - { offsetInCU: 0x2A443, offset: 0x2A443, size: 0x8, addend: 0x0, symName: __ZNKSt3__16vectorINS_12basic_stringIcNS_11char_traitsIcEENS_9allocatorIcEEEENS4_IS6_EEE8capacityB7v160006Ev, symObjAddr: 0xCA60, symBinAddr: 0x100011030, symSize: 0x40 }
  - { offsetInCU: 0x2A474, offset: 0x2A474, size: 0x8, addend: 0x0, symName: __ZNSt3__116allocator_traitsINS_9allocatorINS_12basic_stringIcNS_11char_traitsIcEENS1_IcEEEEEEE8max_sizeB7v160006IS7_vEEmRKS7_, symObjAddr: 0xCACC, symBinAddr: 0x10001109C, symSize: 0x24 }
  - { offsetInCU: 0x2A4A2, offset: 0x2A4A2, size: 0x8, addend: 0x0, symName: __ZNKSt3__16vectorINS_12basic_stringIcNS_11char_traitsIcEENS_9allocatorIcEEEENS4_IS6_EEE7__allocB7v160006Ev, symObjAddr: 0xCAF0, symBinAddr: 0x1000110C0, symSize: 0x28 }
  - { offsetInCU: 0x2A4C8, offset: 0x2A4C8, size: 0x8, addend: 0x0, symName: __ZNSt3__114numeric_limitsIlE3maxB7v160006Ev, symObjAddr: 0xCB18, symBinAddr: 0x1000110E8, symSize: 0x14 }
  - { offsetInCU: 0x2A4DC, offset: 0x2A4DC, size: 0x8, addend: 0x0, symName: __ZNKSt3__19allocatorINS_12basic_stringIcNS_11char_traitsIcEENS0_IcEEEEE8max_sizeB7v160006Ev, symObjAddr: 0xCB80, symBinAddr: 0x100011150, symSize: 0x18 }
  - { offsetInCU: 0x2A502, offset: 0x2A502, size: 0x8, addend: 0x0, symName: __ZNKSt3__117__compressed_pairIPNS_12basic_stringIcNS_11char_traitsIcEENS_9allocatorIcEEEENS4_IS6_EEE6secondB7v160006Ev, symObjAddr: 0xCB98, symBinAddr: 0x100011168, symSize: 0x24 }
  - { offsetInCU: 0x2A528, offset: 0x2A528, size: 0x8, addend: 0x0, symName: __ZNKSt3__122__compressed_pair_elemINS_9allocatorINS_12basic_stringIcNS_11char_traitsIcEENS1_IcEEEEEELi1ELb1EE5__getB7v160006Ev, symObjAddr: 0xCBBC, symBinAddr: 0x10001118C, symSize: 0x14 }
  - { offsetInCU: 0x2A54E, offset: 0x2A54E, size: 0x8, addend: 0x0, symName: __ZNSt3__123__libcpp_numeric_limitsIlLb1EE3maxB7v160006Ev, symObjAddr: 0xCBD0, symBinAddr: 0x1000111A0, symSize: 0x8 }
  - { offsetInCU: 0x2A562, offset: 0x2A562, size: 0x8, addend: 0x0, symName: __ZNSt12length_errorC1B7v160006EPKc, symObjAddr: 0xCC3C, symBinAddr: 0x10001120C, symSize: 0x34 }
  - { offsetInCU: 0x2A59A, offset: 0x2A59A, size: 0x8, addend: 0x0, symName: __ZNSt12length_errorC2B7v160006EPKc, symObjAddr: 0xCC70, symBinAddr: 0x100011240, symSize: 0x4C }
  - { offsetInCU: 0x2A5D2, offset: 0x2A5D2, size: 0x8, addend: 0x0, symName: __ZNKSt3__16vectorINS_12basic_stringIcNS_11char_traitsIcEENS_9allocatorIcEEEENS4_IS6_EEE9__end_capB7v160006Ev, symObjAddr: 0xCCBC, symBinAddr: 0x10001128C, symSize: 0x28 }
  - { offsetInCU: 0x2A5F8, offset: 0x2A5F8, size: 0x8, addend: 0x0, symName: __ZNKSt3__117__compressed_pairIPNS_12basic_stringIcNS_11char_traitsIcEENS_9allocatorIcEEEENS4_IS6_EEE5firstB7v160006Ev, symObjAddr: 0xCCE4, symBinAddr: 0x1000112B4, symSize: 0x24 }
  - { offsetInCU: 0x2A61E, offset: 0x2A61E, size: 0x8, addend: 0x0, symName: __ZNKSt3__122__compressed_pair_elemIPNS_12basic_stringIcNS_11char_traitsIcEENS_9allocatorIcEEEELi0ELb0EE5__getB7v160006Ev, symObjAddr: 0xCD08, symBinAddr: 0x1000112D8, symSize: 0x14 }
  - { offsetInCU: 0x2A644, offset: 0x2A644, size: 0x8, addend: 0x0, symName: __ZNSt3__114__split_bufferINS_12basic_stringIcNS_11char_traitsIcEENS_9allocatorIcEEEERNS4_IS6_EEEC2EmmS8_, symObjAddr: 0xCD1C, symBinAddr: 0x1000112EC, symSize: 0xE0 }
  - { offsetInCU: 0x2A6B7, offset: 0x2A6B7, size: 0x8, addend: 0x0, symName: __ZNSt3__117__compressed_pairIPNS_12basic_stringIcNS_11char_traitsIcEENS_9allocatorIcEEEERNS4_IS6_EEEC1B7v160006IDnS9_EEOT_OT0_, symObjAddr: 0xCDFC, symBinAddr: 0x1000113CC, symSize: 0x3C }
  - { offsetInCU: 0x2A70F, offset: 0x2A70F, size: 0x8, addend: 0x0, symName: __ZNSt3__114__split_bufferINS_12basic_stringIcNS_11char_traitsIcEENS_9allocatorIcEEEERNS4_IS6_EEE7__allocB7v160006Ev, symObjAddr: 0xCE78, symBinAddr: 0x100011448, symSize: 0x28 }
  - { offsetInCU: 0x2A735, offset: 0x2A735, size: 0x8, addend: 0x0, symName: __ZNSt3__114__split_bufferINS_12basic_stringIcNS_11char_traitsIcEENS_9allocatorIcEEEERNS4_IS6_EEE9__end_capB7v160006Ev, symObjAddr: 0xCEA0, symBinAddr: 0x100011470, symSize: 0x28 }
  - { offsetInCU: 0x2A75B, offset: 0x2A75B, size: 0x8, addend: 0x0, symName: __ZNSt3__117__compressed_pairIPNS_12basic_stringIcNS_11char_traitsIcEENS_9allocatorIcEEEERNS4_IS6_EEEC2B7v160006IDnS9_EEOT_OT0_, symObjAddr: 0xCEC8, symBinAddr: 0x100011498, symSize: 0x48 }
  - { offsetInCU: 0x2A7B3, offset: 0x2A7B3, size: 0x8, addend: 0x0, symName: __ZNSt3__122__compressed_pair_elemIRNS_9allocatorINS_12basic_stringIcNS_11char_traitsIcEENS1_IcEEEEEELi1ELb0EEC2B7v160006IS8_vEEOT_, symObjAddr: 0xCF10, symBinAddr: 0x1000114E0, symSize: 0x20 }
  - { offsetInCU: 0x2A7F5, offset: 0x2A7F5, size: 0x8, addend: 0x0, symName: __ZNSt3__19allocatorINS_12basic_stringIcNS_11char_traitsIcEENS0_IcEEEEE8allocateB7v160006Em, symObjAddr: 0xCF30, symBinAddr: 0x100011500, symSize: 0x5C }
  - { offsetInCU: 0x2A829, offset: 0x2A829, size: 0x8, addend: 0x0, symName: __ZNSt3__117__compressed_pairIPNS_12basic_stringIcNS_11char_traitsIcEENS_9allocatorIcEEEERNS4_IS6_EEE6secondB7v160006Ev, symObjAddr: 0xCF8C, symBinAddr: 0x10001155C, symSize: 0x28 }
  - { offsetInCU: 0x2A84F, offset: 0x2A84F, size: 0x8, addend: 0x0, symName: __ZNSt3__122__compressed_pair_elemIRNS_9allocatorINS_12basic_stringIcNS_11char_traitsIcEENS1_IcEEEEEELi1ELb0EE5__getB7v160006Ev, symObjAddr: 0xCFB4, symBinAddr: 0x100011584, symSize: 0x18 }
  - { offsetInCU: 0x2A875, offset: 0x2A875, size: 0x8, addend: 0x0, symName: __ZNSt3__117__compressed_pairIPNS_12basic_stringIcNS_11char_traitsIcEENS_9allocatorIcEEEERNS4_IS6_EEE5firstB7v160006Ev, symObjAddr: 0xCFCC, symBinAddr: 0x10001159C, symSize: 0x24 }
  - { offsetInCU: 0x2A89B, offset: 0x2A89B, size: 0x8, addend: 0x0, symName: __ZNKSt3__16vectorINS_12basic_stringIcNS_11char_traitsIcEENS_9allocatorIcEEEENS4_IS6_EEE17__annotate_deleteB7v160006Ev, symObjAddr: 0xCFF0, symBinAddr: 0x1000115C0, symSize: 0xD4 }
  - { offsetInCU: 0x2A8C1, offset: 0x2A8C1, size: 0x8, addend: 0x0, symName: __ZNSt3__116reverse_iteratorIPNS_12basic_stringIcNS_11char_traitsIcEENS_9allocatorIcEEEEEC1B7v160006ES7_, symObjAddr: 0xD1F0, symBinAddr: 0x1000117C0, symSize: 0x34 }
  - { offsetInCU: 0x2A8F9, offset: 0x2A8F9, size: 0x8, addend: 0x0, symName: __ZNKSt3__116reverse_iteratorIPNS_12basic_stringIcNS_11char_traitsIcEENS_9allocatorIcEEEEE4baseB7v160006Ev, symObjAddr: 0xD224, symBinAddr: 0x1000117F4, symSize: 0x18 }
  - { offsetInCU: 0x2A91F, offset: 0x2A91F, size: 0x8, addend: 0x0, symName: __ZNKSt3__16vectorINS_12basic_stringIcNS_11char_traitsIcEENS_9allocatorIcEEEENS4_IS6_EEE14__annotate_newB7v160006Em, symObjAddr: 0xD278, symBinAddr: 0x100011848, symSize: 0xC8 }
  - { offsetInCU: 0x2A954, offset: 0x2A954, size: 0x8, addend: 0x0, symName: __ZNKSt3__16vectorINS_12basic_stringIcNS_11char_traitsIcEENS_9allocatorIcEEEENS4_IS6_EEE31__annotate_contiguous_containerB7v160006EPKvSA_SA_SA_, symObjAddr: 0xD350, symBinAddr: 0x100011920, symSize: 0x20 }
  - { offsetInCU: 0x2A9A6, offset: 0x2A9A6, size: 0x8, addend: 0x0, symName: __ZNKSt3__16vectorINS_12basic_stringIcNS_11char_traitsIcEENS_9allocatorIcEEEENS4_IS6_EEE4dataB7v160006Ev, symObjAddr: 0xD370, symBinAddr: 0x100011940, symSize: 0x28 }
  - { offsetInCU: 0x2A9CC, offset: 0x2A9CC, size: 0x8, addend: 0x0, symName: __ZNSt3__129_AllocatorDestroyRangeReverseINS_9allocatorINS_12basic_stringIcNS_11char_traitsIcEENS1_IcEEEEEENS_16reverse_iteratorIPS6_EEEC1B7v160006ERS7_RSA_SD_, symObjAddr: 0xD3E4, symBinAddr: 0x1000119B4, symSize: 0x44 }
  - { offsetInCU: 0x2AA29, offset: 0x2AA29, size: 0x8, addend: 0x0, symName: __ZNSt3__116allocator_traitsINS_9allocatorINS_12basic_stringIcNS_11char_traitsIcEENS1_IcEEEEEEE9constructB7v160006IS6_JS6_EvEEvRS7_PT_DpOT0_, symObjAddr: 0xD470, symBinAddr: 0x100011A40, symSize: 0x34 }
  - { offsetInCU: 0x2AA80, offset: 0x2AA80, size: 0x8, addend: 0x0, symName: __ZNKSt3__116reverse_iteratorIPNS_12basic_stringIcNS_11char_traitsIcEENS_9allocatorIcEEEEEdeB7v160006Ev, symObjAddr: 0xD4C8, symBinAddr: 0x100011A98, symSize: 0x28 }
  - { offsetInCU: 0x2AAB4, offset: 0x2AAB4, size: 0x8, addend: 0x0, symName: __ZNSt3__116reverse_iteratorIPNS_12basic_stringIcNS_11char_traitsIcEENS_9allocatorIcEEEEEppB7v160006Ev, symObjAddr: 0xD4F0, symBinAddr: 0x100011AC0, symSize: 0x20 }
  - { offsetInCU: 0x2AADA, offset: 0x2AADA, size: 0x8, addend: 0x0, symName: __ZNSt3__128__exception_guard_exceptionsINS_29_AllocatorDestroyRangeReverseINS_9allocatorINS_12basic_stringIcNS_11char_traitsIcEENS2_IcEEEEEENS_16reverse_iteratorIPS7_EEEEE10__completeB7v160006Ev, symObjAddr: 0xD510, symBinAddr: 0x100011AE0, symSize: 0x1C }
  - { offsetInCU: 0x2AB00, offset: 0x2AB00, size: 0x8, addend: 0x0, symName: __ZNSt3__128__exception_guard_exceptionsINS_29_AllocatorDestroyRangeReverseINS_9allocatorINS_12basic_stringIcNS_11char_traitsIcEENS2_IcEEEEEENS_16reverse_iteratorIPS7_EEEEED1B7v160006Ev, symObjAddr: 0xD52C, symBinAddr: 0x100011AFC, symSize: 0x2C }
  - { offsetInCU: 0x2AB2A, offset: 0x2AB2A, size: 0x8, addend: 0x0, symName: __ZNSt3__128__exception_guard_exceptionsINS_29_AllocatorDestroyRangeReverseINS_9allocatorINS_12basic_stringIcNS_11char_traitsIcEENS2_IcEEEEEENS_16reverse_iteratorIPS7_EEEEEC1B7v160006ESC_, symObjAddr: 0xD558, symBinAddr: 0x100011B28, symSize: 0x34 }
  - { offsetInCU: 0x2AB63, offset: 0x2AB63, size: 0x8, addend: 0x0, symName: __ZNSt3__128__exception_guard_exceptionsINS_29_AllocatorDestroyRangeReverseINS_9allocatorINS_12basic_stringIcNS_11char_traitsIcEENS2_IcEEEEEENS_16reverse_iteratorIPS7_EEEEEC2B7v160006ESC_, symObjAddr: 0xD58C, symBinAddr: 0x100011B5C, symSize: 0x30 }
  - { offsetInCU: 0x2AB9C, offset: 0x2AB9C, size: 0x8, addend: 0x0, symName: __ZNSt3__129_AllocatorDestroyRangeReverseINS_9allocatorINS_12basic_stringIcNS_11char_traitsIcEENS1_IcEEEEEENS_16reverse_iteratorIPS6_EEEC2B7v160006ERS7_RSA_SD_, symObjAddr: 0xD5BC, symBinAddr: 0x100011B8C, symSize: 0x38 }
  - { offsetInCU: 0x2ABF3, offset: 0x2ABF3, size: 0x8, addend: 0x0, symName: __ZNSt3__19allocatorINS_12basic_stringIcNS_11char_traitsIcEENS0_IcEEEEE9constructB7v160006IS5_JS5_EEEvPT_DpOT0_, symObjAddr: 0xD5F4, symBinAddr: 0x100011BC4, symSize: 0x30 }
  - { offsetInCU: 0x2AC4E, offset: 0x2AC4E, size: 0x8, addend: 0x0, symName: __ZNSt3__119__to_address_helperINS_16reverse_iteratorIPNS_12basic_stringIcNS_11char_traitsIcEENS_9allocatorIcEEEEEEvE6__callB7v160006ERKS9_, symObjAddr: 0xD624, symBinAddr: 0x100011BF4, symSize: 0x38 }
  - { offsetInCU: 0x2AC71, offset: 0x2AC71, size: 0x8, addend: 0x0, symName: __ZNKSt3__116reverse_iteratorIPNS_12basic_stringIcNS_11char_traitsIcEENS_9allocatorIcEEEEEptB7v160006Ev, symObjAddr: 0xD65C, symBinAddr: 0x100011C2C, symSize: 0x24 }
  - { offsetInCU: 0x2AC97, offset: 0x2AC97, size: 0x8, addend: 0x0, symName: __ZNSt3__128__exception_guard_exceptionsINS_29_AllocatorDestroyRangeReverseINS_9allocatorINS_12basic_stringIcNS_11char_traitsIcEENS2_IcEEEEEENS_16reverse_iteratorIPS7_EEEEED2B7v160006Ev, symObjAddr: 0xD680, symBinAddr: 0x100011C50, symSize: 0x50 }
  - { offsetInCU: 0x2ACC1, offset: 0x2ACC1, size: 0x8, addend: 0x0, symName: __ZNKSt3__129_AllocatorDestroyRangeReverseINS_9allocatorINS_12basic_stringIcNS_11char_traitsIcEENS1_IcEEEEEENS_16reverse_iteratorIPS6_EEEclB7v160006Ev, symObjAddr: 0xD6D0, symBinAddr: 0x100011CA0, symSize: 0xB4 }
  - { offsetInCU: 0x2ACE8, offset: 0x2ACE8, size: 0x8, addend: 0x0, symName: __ZNSt3__116reverse_iteratorINS0_IPNS_12basic_stringIcNS_11char_traitsIcEENS_9allocatorIcEEEEEEEC1B7v160006ES8_, symObjAddr: 0xD7F4, symBinAddr: 0x100011DC4, symSize: 0x3C }
  - { offsetInCU: 0x2AD20, offset: 0x2AD20, size: 0x8, addend: 0x0, symName: __ZNSt3__116allocator_traitsINS_9allocatorINS_12basic_stringIcNS_11char_traitsIcEENS1_IcEEEEEEE7destroyB7v160006IS6_vEEvRS7_PT_, symObjAddr: 0xD890, symBinAddr: 0x100011E60, symSize: 0x2C }
  - { offsetInCU: 0x2AD5D, offset: 0x2AD5D, size: 0x8, addend: 0x0, symName: __ZNSt3__116reverse_iteratorINS0_IPNS_12basic_stringIcNS_11char_traitsIcEENS_9allocatorIcEEEEEEEppB7v160006Ev, symObjAddr: 0xD8E0, symBinAddr: 0x100011EB0, symSize: 0x30 }
  - { offsetInCU: 0x2AD83, offset: 0x2AD83, size: 0x8, addend: 0x0, symName: __ZNKSt3__116reverse_iteratorINS0_IPNS_12basic_stringIcNS_11char_traitsIcEENS_9allocatorIcEEEEEEE4baseB7v160006Ev, symObjAddr: 0xD910, symBinAddr: 0x100011EE0, symSize: 0x24 }
  - { offsetInCU: 0x2ADA9, offset: 0x2ADA9, size: 0x8, addend: 0x0, symName: __ZNSt3__19allocatorINS_12basic_stringIcNS_11char_traitsIcEENS0_IcEEEEE7destroyB7v160006EPS5_, symObjAddr: 0xD934, symBinAddr: 0x100011F04, symSize: 0x28 }
  - { offsetInCU: 0x2ADE2, offset: 0x2ADE2, size: 0x8, addend: 0x0, symName: __ZNSt3__119__to_address_helperINS_16reverse_iteratorINS1_IPNS_12basic_stringIcNS_11char_traitsIcEENS_9allocatorIcEEEEEEEEvE6__callB7v160006ERKSA_, symObjAddr: 0xD95C, symBinAddr: 0x100011F2C, symSize: 0x38 }
  - { offsetInCU: 0x2AE05, offset: 0x2AE05, size: 0x8, addend: 0x0, symName: __ZNKSt3__116reverse_iteratorINS0_IPNS_12basic_stringIcNS_11char_traitsIcEENS_9allocatorIcEEEEEEEptB7v160006Ev, symObjAddr: 0xD994, symBinAddr: 0x100011F64, symSize: 0x24 }
  - { offsetInCU: 0x2AE2B, offset: 0x2AE2B, size: 0x8, addend: 0x0, symName: __ZNKSt3__116reverse_iteratorINS0_IPNS_12basic_stringIcNS_11char_traitsIcEENS_9allocatorIcEEEEEEEdeB7v160006Ev, symObjAddr: 0xD9B8, symBinAddr: 0x100011F88, symSize: 0x34 }
  - { offsetInCU: 0x2AE5F, offset: 0x2AE5F, size: 0x8, addend: 0x0, symName: __ZNSt3__116reverse_iteratorIPNS_12basic_stringIcNS_11char_traitsIcEENS_9allocatorIcEEEEEmmB7v160006Ev, symObjAddr: 0xD9EC, symBinAddr: 0x100011FBC, symSize: 0x20 }
  - { offsetInCU: 0x2AE85, offset: 0x2AE85, size: 0x8, addend: 0x0, symName: __ZNSt3__116reverse_iteratorINS0_IPNS_12basic_stringIcNS_11char_traitsIcEENS_9allocatorIcEEEEEEEC2B7v160006ES8_, symObjAddr: 0xDA0C, symBinAddr: 0x100011FDC, symSize: 0x2C }
  - { offsetInCU: 0x2AEBD, offset: 0x2AEBD, size: 0x8, addend: 0x0, symName: __ZNSt3__116reverse_iteratorIPNS_12basic_stringIcNS_11char_traitsIcEENS_9allocatorIcEEEEEC2B7v160006ES7_, symObjAddr: 0xDA38, symBinAddr: 0x100012008, symSize: 0x28 }
  - { offsetInCU: 0x2AEF5, offset: 0x2AEF5, size: 0x8, addend: 0x0, symName: __ZNSt3__114__split_bufferINS_12basic_stringIcNS_11char_traitsIcEENS_9allocatorIcEEEERNS4_IS6_EEED2Ev, symObjAddr: 0xDA60, symBinAddr: 0x100012030, symSize: 0x8C }
  - { offsetInCU: 0x2AF21, offset: 0x2AF21, size: 0x8, addend: 0x0, symName: __ZNSt3__114__split_bufferINS_12basic_stringIcNS_11char_traitsIcEENS_9allocatorIcEEEERNS4_IS6_EEE5clearB7v160006Ev, symObjAddr: 0xDAEC, symBinAddr: 0x1000120BC, symSize: 0x28 }
  - { offsetInCU: 0x2AF47, offset: 0x2AF47, size: 0x8, addend: 0x0, symName: __ZNSt3__116allocator_traitsINS_9allocatorINS_12basic_stringIcNS_11char_traitsIcEENS1_IcEEEEEEE10deallocateB7v160006ERS7_PS6_m, symObjAddr: 0xDB14, symBinAddr: 0x1000120E4, symSize: 0x34 }
  - { offsetInCU: 0x2AF89, offset: 0x2AF89, size: 0x8, addend: 0x0, symName: __ZNKSt3__114__split_bufferINS_12basic_stringIcNS_11char_traitsIcEENS_9allocatorIcEEEERNS4_IS6_EEE8capacityB7v160006Ev, symObjAddr: 0xDB48, symBinAddr: 0x100012118, symSize: 0x40 }
  - { offsetInCU: 0x2AFAF, offset: 0x2AFAF, size: 0x8, addend: 0x0, symName: __ZNSt3__114__split_bufferINS_12basic_stringIcNS_11char_traitsIcEENS_9allocatorIcEEEERNS4_IS6_EEE17__destruct_at_endB7v160006EPS6_, symObjAddr: 0xDB88, symBinAddr: 0x100012158, symSize: 0x2C }
  - { offsetInCU: 0x2AFE3, offset: 0x2AFE3, size: 0x8, addend: 0x0, symName: __ZNSt3__114__split_bufferINS_12basic_stringIcNS_11char_traitsIcEENS_9allocatorIcEEEERNS4_IS6_EEE17__destruct_at_endB7v160006EPS6_NS_17integral_constantIbLb0EEE, symObjAddr: 0xDBB4, symBinAddr: 0x100012184, symSize: 0x80 }
  - { offsetInCU: 0x2B023, offset: 0x2B023, size: 0x8, addend: 0x0, symName: __ZNSt3__19allocatorINS_12basic_stringIcNS_11char_traitsIcEENS0_IcEEEEE10deallocateB7v160006EPS5_m, symObjAddr: 0xDC34, symBinAddr: 0x100012204, symSize: 0x44 }
  - { offsetInCU: 0x2B065, offset: 0x2B065, size: 0x8, addend: 0x0, symName: __ZNKSt3__114__split_bufferINS_12basic_stringIcNS_11char_traitsIcEENS_9allocatorIcEEEERNS4_IS6_EEE9__end_capB7v160006Ev, symObjAddr: 0xDC78, symBinAddr: 0x100012248, symSize: 0x28 }
  - { offsetInCU: 0x2B08B, offset: 0x2B08B, size: 0x8, addend: 0x0, symName: __ZNKSt3__117__compressed_pairIPNS_12basic_stringIcNS_11char_traitsIcEENS_9allocatorIcEEEERNS4_IS6_EEE5firstB7v160006Ev, symObjAddr: 0xDCA0, symBinAddr: 0x100012270, symSize: 0x24 }
  - { offsetInCU: 0x2B0B1, offset: 0x2B0B1, size: 0x8, addend: 0x0, symName: __ZNKSt3__117__compressed_pairIP8TreenodeNS_14default_deleteIS1_EEE5firstB7v160006Ev, symObjAddr: 0xDCC4, symBinAddr: 0x100012294, symSize: 0x24 }
  - { offsetInCU: 0x2B0D7, offset: 0x2B0D7, size: 0x8, addend: 0x0, symName: __ZNKSt3__122__compressed_pair_elemIP8TreenodeLi0ELb0EE5__getB7v160006Ev, symObjAddr: 0xDCE8, symBinAddr: 0x1000122B8, symSize: 0x14 }
  - { offsetInCU: 0x2B0FD, offset: 0x2B0FD, size: 0x8, addend: 0x0, symName: __ZNKSt3__112basic_stringIcNS_11char_traitsIcEENS_9allocatorIcEEE5emptyB7v160006Ev, symObjAddr: 0xDCFC, symBinAddr: 0x1000122CC, symSize: 0x30 }
  - { offsetInCU: 0x2B123, offset: 0x2B123, size: 0x8, addend: 0x0, symName: __ZNSt3__110unique_ptrI8TreenodeNS_14default_deleteIS1_EEEaSB7v160006EOS4_, symObjAddr: 0xDD2C, symBinAddr: 0x1000122FC, symSize: 0x50 }
  - { offsetInCU: 0x2B157, offset: 0x2B157, size: 0x8, addend: 0x0, symName: __ZNSt3__110unique_ptrI8TreenodeNS_14default_deleteIS1_EEE5resetB7v160006EPS1_, symObjAddr: 0xDD7C, symBinAddr: 0x10001234C, symSize: 0x78 }
  - { offsetInCU: 0x2B19B, offset: 0x2B19B, size: 0x8, addend: 0x0, symName: __ZNSt3__110unique_ptrI8TreenodeNS_14default_deleteIS1_EEE7releaseB7v160006Ev, symObjAddr: 0xDDF4, symBinAddr: 0x1000123C4, symSize: 0x44 }
  - { offsetInCU: 0x2B1D0, offset: 0x2B1D0, size: 0x8, addend: 0x0, symName: __ZNSt3__110unique_ptrI8TreenodeNS_14default_deleteIS1_EEE11get_deleterB7v160006Ev, symObjAddr: 0xDE38, symBinAddr: 0x100012408, symSize: 0x24 }
  - { offsetInCU: 0x2B1F6, offset: 0x2B1F6, size: 0x8, addend: 0x0, symName: __ZNSt3__117__compressed_pairIP8TreenodeNS_14default_deleteIS1_EEE6secondB7v160006Ev, symObjAddr: 0xDE5C, symBinAddr: 0x10001242C, symSize: 0x24 }
  - { offsetInCU: 0x2B21C, offset: 0x2B21C, size: 0x8, addend: 0x0, symName: __ZNSt3__117__compressed_pairIP8TreenodeNS_14default_deleteIS1_EEE5firstB7v160006Ev, symObjAddr: 0xDE80, symBinAddr: 0x100012450, symSize: 0x24 }
  - { offsetInCU: 0x2B242, offset: 0x2B242, size: 0x8, addend: 0x0, symName: __ZNKSt3__114default_deleteI8TreenodeEclB7v160006EPS1_, symObjAddr: 0xDEA4, symBinAddr: 0x100012474, symSize: 0x4C }
  - { offsetInCU: 0x2B276, offset: 0x2B276, size: 0x8, addend: 0x0, symName: __ZNSt3__122__compressed_pair_elemIP8TreenodeLi0ELb0EE5__getB7v160006Ev, symObjAddr: 0xDEF0, symBinAddr: 0x1000124C0, symSize: 0x14 }
  - { offsetInCU: 0x2B29C, offset: 0x2B29C, size: 0x8, addend: 0x0, symName: __ZN8TreenodeD1Ev, symObjAddr: 0xDF04, symBinAddr: 0x1000124D4, symSize: 0x2C }
  - { offsetInCU: 0x2B2C9, offset: 0x2B2C9, size: 0x8, addend: 0x0, symName: __ZN8TreenodeD2Ev, symObjAddr: 0xDF30, symBinAddr: 0x100012500, symSize: 0x94 }
  - { offsetInCU: 0x2B2F6, offset: 0x2B2F6, size: 0x8, addend: 0x0, symName: __ZNSt3__16vectorIP12SymbolsTableNS_9allocatorIS2_EEED1B7v160006Ev, symObjAddr: 0xDFC4, symBinAddr: 0x100012594, symSize: 0x2C }
  - { offsetInCU: 0x2B320, offset: 0x2B320, size: 0x8, addend: 0x0, symName: __ZNSt3__16vectorINS_12basic_stringIcNS_11char_traitsIcEENS_9allocatorIcEEEENS4_IS6_EEED1B7v160006Ev, symObjAddr: 0xDFF0, symBinAddr: 0x1000125C0, symSize: 0x2C }
  - { offsetInCU: 0x2B34A, offset: 0x2B34A, size: 0x8, addend: 0x0, symName: __ZNSt3__16vectorIP12SymbolsTableNS_9allocatorIS2_EEED2B7v160006Ev, symObjAddr: 0xE01C, symBinAddr: 0x1000125EC, symSize: 0x44 }
  - { offsetInCU: 0x2B374, offset: 0x2B374, size: 0x8, addend: 0x0, symName: __ZNSt3__16vectorIP12SymbolsTableNS_9allocatorIS2_EEE16__destroy_vectorC1ERS5_, symObjAddr: 0xE060, symBinAddr: 0x100012630, symSize: 0x34 }
  - { offsetInCU: 0x2B3AD, offset: 0x2B3AD, size: 0x8, addend: 0x0, symName: __ZNSt3__16vectorIP12SymbolsTableNS_9allocatorIS2_EEE16__destroy_vectorclB7v160006Ev, symObjAddr: 0xE094, symBinAddr: 0x100012664, symSize: 0x9C }
  - { offsetInCU: 0x2B3D3, offset: 0x2B3D3, size: 0x8, addend: 0x0, symName: __ZNSt3__16vectorIP12SymbolsTableNS_9allocatorIS2_EEE16__destroy_vectorC2ERS5_, symObjAddr: 0xE130, symBinAddr: 0x100012700, symSize: 0x20 }
  - { offsetInCU: 0x2B40C, offset: 0x2B40C, size: 0x8, addend: 0x0, symName: __ZNKSt3__16vectorIP12SymbolsTableNS_9allocatorIS2_EEE17__annotate_deleteB7v160006Ev, symObjAddr: 0xE150, symBinAddr: 0x100012720, symSize: 0xB8 }
  - { offsetInCU: 0x2B432, offset: 0x2B432, size: 0x8, addend: 0x0, symName: __ZNSt3__16vectorIP12SymbolsTableNS_9allocatorIS2_EEE7__clearB7v160006Ev, symObjAddr: 0xE218, symBinAddr: 0x1000127E8, symSize: 0x28 }
  - { offsetInCU: 0x2B458, offset: 0x2B458, size: 0x8, addend: 0x0, symName: __ZNSt3__116allocator_traitsINS_9allocatorIP12SymbolsTableEEE10deallocateB7v160006ERS4_PS3_m, symObjAddr: 0xE240, symBinAddr: 0x100012810, symSize: 0x34 }
  - { offsetInCU: 0x2B49A, offset: 0x2B49A, size: 0x8, addend: 0x0, symName: __ZNSt3__16vectorIP12SymbolsTableNS_9allocatorIS2_EEE7__allocB7v160006Ev, symObjAddr: 0xE274, symBinAddr: 0x100012844, symSize: 0x28 }
  - { offsetInCU: 0x2B4C0, offset: 0x2B4C0, size: 0x8, addend: 0x0, symName: __ZNKSt3__16vectorIP12SymbolsTableNS_9allocatorIS2_EEE8capacityB7v160006Ev, symObjAddr: 0xE29C, symBinAddr: 0x10001286C, symSize: 0x40 }
  - { offsetInCU: 0x2B4E6, offset: 0x2B4E6, size: 0x8, addend: 0x0, symName: __ZNKSt3__16vectorIP12SymbolsTableNS_9allocatorIS2_EEE31__annotate_contiguous_containerB7v160006EPKvS7_S7_S7_, symObjAddr: 0xE2DC, symBinAddr: 0x1000128AC, symSize: 0x20 }
  - { offsetInCU: 0x2B538, offset: 0x2B538, size: 0x8, addend: 0x0, symName: __ZNKSt3__16vectorIP12SymbolsTableNS_9allocatorIS2_EEE4dataB7v160006Ev, symObjAddr: 0xE2FC, symBinAddr: 0x1000128CC, symSize: 0x28 }
  - { offsetInCU: 0x2B55E, offset: 0x2B55E, size: 0x8, addend: 0x0, symName: __ZNKSt3__16vectorIP12SymbolsTableNS_9allocatorIS2_EEE4sizeB7v160006Ev, symObjAddr: 0xE324, symBinAddr: 0x1000128F4, symSize: 0x28 }
  - { offsetInCU: 0x2B584, offset: 0x2B584, size: 0x8, addend: 0x0, symName: __ZNSt3__16vectorIP12SymbolsTableNS_9allocatorIS2_EEE22__base_destruct_at_endB7v160006EPS2_, symObjAddr: 0xE360, symBinAddr: 0x100012930, symSize: 0x8C }
  - { offsetInCU: 0x2B5C8, offset: 0x2B5C8, size: 0x8, addend: 0x0, symName: __ZNSt3__116allocator_traitsINS_9allocatorIP12SymbolsTableEEE7destroyB7v160006IS3_vEEvRS4_PT_, symObjAddr: 0xE3EC, symBinAddr: 0x1000129BC, symSize: 0x2C }
  - { offsetInCU: 0x2B605, offset: 0x2B605, size: 0x8, addend: 0x0, symName: __ZNSt3__19allocatorIP12SymbolsTableE7destroyB7v160006EPS2_, symObjAddr: 0xE418, symBinAddr: 0x1000129E8, symSize: 0x14 }
  - { offsetInCU: 0x2B639, offset: 0x2B639, size: 0x8, addend: 0x0, symName: __ZNSt3__19allocatorIP12SymbolsTableE10deallocateB7v160006EPS2_m, symObjAddr: 0xE42C, symBinAddr: 0x1000129FC, symSize: 0x40 }
  - { offsetInCU: 0x2B67B, offset: 0x2B67B, size: 0x8, addend: 0x0, symName: __ZNSt3__117__compressed_pairIPP12SymbolsTableNS_9allocatorIS2_EEE6secondB7v160006Ev, symObjAddr: 0xE46C, symBinAddr: 0x100012A3C, symSize: 0x24 }
  - { offsetInCU: 0x2B6A1, offset: 0x2B6A1, size: 0x8, addend: 0x0, symName: __ZNSt3__122__compressed_pair_elemINS_9allocatorIP12SymbolsTableEELi1ELb1EE5__getB7v160006Ev, symObjAddr: 0xE490, symBinAddr: 0x100012A60, symSize: 0x14 }
  - { offsetInCU: 0x2B6C7, offset: 0x2B6C7, size: 0x8, addend: 0x0, symName: __ZNKSt3__16vectorIP12SymbolsTableNS_9allocatorIS2_EEE9__end_capB7v160006Ev, symObjAddr: 0xE4A4, symBinAddr: 0x100012A74, symSize: 0x28 }
  - { offsetInCU: 0x2B6ED, offset: 0x2B6ED, size: 0x8, addend: 0x0, symName: __ZNKSt3__117__compressed_pairIPP12SymbolsTableNS_9allocatorIS2_EEE5firstB7v160006Ev, symObjAddr: 0xE4CC, symBinAddr: 0x100012A9C, symSize: 0x24 }
  - { offsetInCU: 0x2B713, offset: 0x2B713, size: 0x8, addend: 0x0, symName: __ZNKSt3__122__compressed_pair_elemIPP12SymbolsTableLi0ELb0EE5__getB7v160006Ev, symObjAddr: 0xE4F0, symBinAddr: 0x100012AC0, symSize: 0x14 }
  - { offsetInCU: 0x2B739, offset: 0x2B739, size: 0x8, addend: 0x0, symName: __ZNSt3__16vectorINS_12basic_stringIcNS_11char_traitsIcEENS_9allocatorIcEEEENS4_IS6_EEED2B7v160006Ev, symObjAddr: 0xE504, symBinAddr: 0x100012AD4, symSize: 0x44 }
  - { offsetInCU: 0x2B763, offset: 0x2B763, size: 0x8, addend: 0x0, symName: __ZNSt3__16vectorINS_12basic_stringIcNS_11char_traitsIcEENS_9allocatorIcEEEENS4_IS6_EEE16__destroy_vectorC1ERS8_, symObjAddr: 0xE548, symBinAddr: 0x100012B18, symSize: 0x34 }
  - { offsetInCU: 0x2B79C, offset: 0x2B79C, size: 0x8, addend: 0x0, symName: __ZNSt3__16vectorINS_12basic_stringIcNS_11char_traitsIcEENS_9allocatorIcEEEENS4_IS6_EEE16__destroy_vectorclB7v160006Ev, symObjAddr: 0xE57C, symBinAddr: 0x100012B4C, symSize: 0x9C }
  - { offsetInCU: 0x2B7C2, offset: 0x2B7C2, size: 0x8, addend: 0x0, symName: __ZNSt3__16vectorINS_12basic_stringIcNS_11char_traitsIcEENS_9allocatorIcEEEENS4_IS6_EEE16__destroy_vectorC2ERS8_, symObjAddr: 0xE618, symBinAddr: 0x100012BE8, symSize: 0x20 }
  - { offsetInCU: 0x2B7FB, offset: 0x2B7FB, size: 0x8, addend: 0x0, symName: __ZNSt3__16vectorINS_12basic_stringIcNS_11char_traitsIcEENS_9allocatorIcEEEENS4_IS6_EEE7__clearB7v160006Ev, symObjAddr: 0xE648, symBinAddr: 0x100012C18, symSize: 0x28 }
  - { offsetInCU: 0x2B821, offset: 0x2B821, size: 0x8, addend: 0x0, symName: __ZNSt3__16vectorINS_12basic_stringIcNS_11char_traitsIcEENS_9allocatorIcEEEENS4_IS6_EEE22__base_destruct_at_endB7v160006EPS6_, symObjAddr: 0xE670, symBinAddr: 0x100012C40, symSize: 0x8C }
  - { offsetInCU: 0x2B865, offset: 0x2B865, size: 0x8, addend: 0x0, symName: __ZNSt3__122__compressed_pair_elemINS_14default_deleteI8TreenodeEELi1ELb1EE5__getB7v160006Ev, symObjAddr: 0xE6FC, symBinAddr: 0x100012CCC, symSize: 0x14 }
  - { offsetInCU: 0x2B88B, offset: 0x2B88B, size: 0x8, addend: 0x0, symName: __ZNSt3__110unique_ptrI8TreenodeNS_14default_deleteIS1_EEEC2B7v160006EOS4_, symObjAddr: 0xE710, symBinAddr: 0x100012CE0, symSize: 0x60 }
  - { offsetInCU: 0x2B8CF, offset: 0x2B8CF, size: 0x8, addend: 0x0, symName: __ZNSt3__117__compressed_pairIP8TreenodeNS_14default_deleteIS1_EEEC1B7v160006IS2_S4_EEOT_OT0_, symObjAddr: 0xE770, symBinAddr: 0x100012D40, symSize: 0x3C }
  - { offsetInCU: 0x2B927, offset: 0x2B927, size: 0x8, addend: 0x0, symName: __ZNSt3__117__compressed_pairIP8TreenodeNS_14default_deleteIS1_EEEC2B7v160006IS2_S4_EEOT_OT0_, symObjAddr: 0xE7AC, symBinAddr: 0x100012D7C, symSize: 0x44 }
  - { offsetInCU: 0x2B97F, offset: 0x2B97F, size: 0x8, addend: 0x0, symName: __ZNSt3__122__compressed_pair_elemIP8TreenodeLi0ELb0EEC2B7v160006IS2_vEEOT_, symObjAddr: 0xE7F0, symBinAddr: 0x100012DC0, symSize: 0x24 }
  - { offsetInCU: 0x2B9C1, offset: 0x2B9C1, size: 0x8, addend: 0x0, symName: __ZNSt3__122__compressed_pair_elemINS_14default_deleteI8TreenodeEELi1ELb1EEC2B7v160006IS3_vEEOT_, symObjAddr: 0xE814, symBinAddr: 0x100012DE4, symSize: 0x18 }
  - { offsetInCU: 0x2BA03, offset: 0x2BA03, size: 0x8, addend: 0x0, symName: __ZNSt3__110unique_ptrI8TreenodeNS_14default_deleteIS1_EEEC1B7v160006ILb1EvEEDn, symObjAddr: 0xE82C, symBinAddr: 0x100012DFC, symSize: 0x34 }
  - { offsetInCU: 0x2BA42, offset: 0x2BA42, size: 0x8, addend: 0x0, symName: __ZN6Parser11typeDecpartEv, symObjAddr: 0xE860, symBinAddr: 0x100012E30, symSize: 0x210 }
  - { offsetInCU: 0x2BA78, offset: 0x2BA78, size: 0x8, addend: 0x0, symName: __ZN6Parser10varDecpartEv, symObjAddr: 0xEA70, symBinAddr: 0x100013040, symSize: 0x1BC }
  - { offsetInCU: 0x2BAAE, offset: 0x2BAAE, size: 0x8, addend: 0x0, symName: __ZN6Parser11procDecpartEv, symObjAddr: 0xEC2C, symBinAddr: 0x1000131FC, symSize: 0x1A0 }
  - { offsetInCU: 0x2BAE4, offset: 0x2BAE4, size: 0x8, addend: 0x0, symName: __ZN8Treenode10addSiblingENSt3__110unique_ptrIS_NS0_14default_deleteIS_EEEE, symObjAddr: 0xEDCC, symBinAddr: 0x10001339C, symSize: 0x68 }
  - { offsetInCU: 0x2BB29, offset: 0x2BB29, size: 0x8, addend: 0x0, symName: __ZNSt3__110unique_ptrI8TreenodeNS_14default_deleteIS1_EEEC2B7v160006ILb1EvEEDn, symObjAddr: 0xEE34, symBinAddr: 0x100013404, symSize: 0x40 }
  - { offsetInCU: 0x2BB68, offset: 0x2BB68, size: 0x8, addend: 0x0, symName: __ZN6Parser7typeDecEv, symObjAddr: 0xEE74, symBinAddr: 0x100013444, symSize: 0xFC }
  - { offsetInCU: 0x2BB9E, offset: 0x2BB9E, size: 0x8, addend: 0x0, symName: __ZN6Parser15lexTypeToStringE7LexType, symObjAddr: 0xEFF4, symBinAddr: 0x1000135C4, symSize: 0x3A4 }
  - { offsetInCU: 0x2BBD3, offset: 0x2BBD3, size: 0x8, addend: 0x0, symName: __ZN6Parser11typeDecListEv, symObjAddr: 0xF440, symBinAddr: 0x100013A10, symSize: 0x15C }
  - { offsetInCU: 0x2BC18, offset: 0x2BC18, size: 0x8, addend: 0x0, symName: __ZN6Parser6typeIdERNSt3__110unique_ptrI8TreenodeNS0_14default_deleteIS2_EEEE, symObjAddr: 0xF59C, symBinAddr: 0x100013B6C, symSize: 0x8C }
  - { offsetInCU: 0x2BC4D, offset: 0x2BC4D, size: 0x8, addend: 0x0, symName: __ZN6Parser7typeDefERNSt3__110unique_ptrI8TreenodeNS0_14default_deleteIS2_EEEE, symObjAddr: 0xF628, symBinAddr: 0x100013BF8, symSize: 0x240 }
  - { offsetInCU: 0x2BC82, offset: 0x2BC82, size: 0x8, addend: 0x0, symName: __ZN6Parser11typeDecMoreEv, symObjAddr: 0xF868, symBinAddr: 0x100013E38, symSize: 0x210 }
  - { offsetInCU: 0x2BCB8, offset: 0x2BCB8, size: 0x8, addend: 0x0, symName: __ZN6Parser8baseTypeERNSt3__110unique_ptrI8TreenodeNS0_14default_deleteIS2_EEEE, symObjAddr: 0xFAA4, symBinAddr: 0x100014074, symSize: 0xA8 }
  - { offsetInCU: 0x2BCED, offset: 0x2BCED, size: 0x8, addend: 0x0, symName: __ZN6Parser13structureTypeERNSt3__110unique_ptrI8TreenodeNS0_14default_deleteIS2_EEEE, symObjAddr: 0xFB4C, symBinAddr: 0x10001411C, symSize: 0x94 }
  - { offsetInCU: 0x2BD22, offset: 0x2BD22, size: 0x8, addend: 0x0, symName: __ZN6Parser9arrayTypeERNSt3__110unique_ptrI8TreenodeNS0_14default_deleteIS2_EEEE, symObjAddr: 0xFBE0, symBinAddr: 0x1000141B0, symSize: 0x150 }
  - { offsetInCU: 0x2BD57, offset: 0x2BD57, size: 0x8, addend: 0x0, symName: __ZN6Parser7recTypeERNSt3__110unique_ptrI8TreenodeNS0_14default_deleteIS2_EEEE, symObjAddr: 0xFD30, symBinAddr: 0x100014300, symSize: 0x110 }
  - { offsetInCU: 0x2BD9B, offset: 0x2BD9B, size: 0x8, addend: 0x0, symName: __ZN6Parser12fieldDecListEv, symObjAddr: 0xFE40, symBinAddr: 0x100014410, symSize: 0x2BC }
  - { offsetInCU: 0x2BDE0, offset: 0x2BDE0, size: 0x8, addend: 0x0, symName: __ZN6Parser6idListERNSt3__110unique_ptrI8TreenodeNS0_14default_deleteIS2_EEEE, symObjAddr: 0x100FC, symBinAddr: 0x1000146CC, symSize: 0x84 }
  - { offsetInCU: 0x2BE15, offset: 0x2BE15, size: 0x8, addend: 0x0, symName: __ZN6Parser12fieldDecMoreEv, symObjAddr: 0x10180, symBinAddr: 0x100014750, symSize: 0x1D0 }
  - { offsetInCU: 0x2BE4B, offset: 0x2BE4B, size: 0x8, addend: 0x0, symName: __ZN6Parser6idMoreERNSt3__110unique_ptrI8TreenodeNS0_14default_deleteIS2_EEEE, symObjAddr: 0x10350, symBinAddr: 0x100014920, symSize: 0x11C }
  - { offsetInCU: 0x2BE80, offset: 0x2BE80, size: 0x8, addend: 0x0, symName: __ZN6Parser6varDecEv, symObjAddr: 0x1046C, symBinAddr: 0x100014A3C, symSize: 0xFC }
  - { offsetInCU: 0x2BEB6, offset: 0x2BEB6, size: 0x8, addend: 0x0, symName: __ZN6Parser10varDecListEv, symObjAddr: 0x10568, symBinAddr: 0x100014B38, symSize: 0x160 }
  - { offsetInCU: 0x2BEFB, offset: 0x2BEFB, size: 0x8, addend: 0x0, symName: __ZN6Parser9varIdListERNSt3__110unique_ptrI8TreenodeNS0_14default_deleteIS2_EEEE, symObjAddr: 0x106C8, symBinAddr: 0x100014C98, symSize: 0xD8 }
  - { offsetInCU: 0x2BF30, offset: 0x2BF30, size: 0x8, addend: 0x0, symName: __ZN6Parser10varDecMoreEv, symObjAddr: 0x107A0, symBinAddr: 0x100014D70, symSize: 0x228 }
  - { offsetInCU: 0x2BF66, offset: 0x2BF66, size: 0x8, addend: 0x0, symName: __ZN6Parser9varIdMoreERNSt3__110unique_ptrI8TreenodeNS0_14default_deleteIS2_EEEE, symObjAddr: 0x109C8, symBinAddr: 0x100014F98, symSize: 0x11C }
  - { offsetInCU: 0x2BF9B, offset: 0x2BF9B, size: 0x8, addend: 0x0, symName: __ZN6Parser7procDecEv, symObjAddr: 0x10AE4, symBinAddr: 0x1000150B4, symSize: 0x234 }
  - { offsetInCU: 0x2BFD1, offset: 0x2BFD1, size: 0x8, addend: 0x0, symName: __ZN6Parser9paramListERNSt3__110unique_ptrI8TreenodeNS0_14default_deleteIS2_EEEE, symObjAddr: 0x10D18, symBinAddr: 0x1000152E8, symSize: 0x224 }
  - { offsetInCU: 0x2C015, offset: 0x2C015, size: 0x8, addend: 0x0, symName: __ZN6Parser11procDecPartEv, symObjAddr: 0x10F3C, symBinAddr: 0x10001550C, symSize: 0x2C }
  - { offsetInCU: 0x2C03B, offset: 0x2C03B, size: 0x8, addend: 0x0, symName: __ZN6Parser8procBodyEv, symObjAddr: 0x10F68, symBinAddr: 0x100015538, symSize: 0xEC }
  - { offsetInCU: 0x2C071, offset: 0x2C071, size: 0x8, addend: 0x0, symName: __ZN6Parser12paramDecListEv, symObjAddr: 0x11054, symBinAddr: 0x100015624, symSize: 0x110 }
  - { offsetInCU: 0x2C0B6, offset: 0x2C0B6, size: 0x8, addend: 0x0, symName: __ZN6Parser5paramEv, symObjAddr: 0x11164, symBinAddr: 0x100015734, symSize: 0x1C8 }
  - { offsetInCU: 0x2C0EC, offset: 0x2C0EC, size: 0x8, addend: 0x0, symName: __ZN6Parser9paramMoreEv, symObjAddr: 0x1132C, symBinAddr: 0x1000158FC, symSize: 0x178 }
  - { offsetInCU: 0x2C122, offset: 0x2C122, size: 0x8, addend: 0x0, symName: __ZN6Parser8formListERNSt3__110unique_ptrI8TreenodeNS0_14default_deleteIS2_EEEE, symObjAddr: 0x114A4, symBinAddr: 0x100015A74, symSize: 0x84 }
  - { offsetInCU: 0x2C157, offset: 0x2C157, size: 0x8, addend: 0x0, symName: __ZN6Parser7fidMoreERNSt3__110unique_ptrI8TreenodeNS0_14default_deleteIS2_EEEE, symObjAddr: 0x11528, symBinAddr: 0x100015AF8, symSize: 0x138 }
  - { offsetInCU: 0x2C18C, offset: 0x2C18C, size: 0x8, addend: 0x0, symName: __ZNKSt3__110unique_ptrI8TreenodeNS_14default_deleteIS1_EEE3getB7v160006Ev, symObjAddr: 0x11660, symBinAddr: 0x100015C30, symSize: 0x28 }
  - { offsetInCU: 0x2C1B2, offset: 0x2C1B2, size: 0x8, addend: 0x0, symName: __ZN6Parser7stmListEv, symObjAddr: 0x11688, symBinAddr: 0x100015C58, symSize: 0xEC }
  - { offsetInCU: 0x2C1F7, offset: 0x2C1F7, size: 0x8, addend: 0x0, symName: __ZN6Parser3stmEv, symObjAddr: 0x11774, symBinAddr: 0x100015D44, symSize: 0x37C }
  - { offsetInCU: 0x2C253, offset: 0x2C253, size: 0x8, addend: 0x0, symName: __ZN6Parser7stmMoreEv, symObjAddr: 0x11B38, symBinAddr: 0x100016108, symSize: 0x200 }
  - { offsetInCU: 0x2C289, offset: 0x2C289, size: 0x8, addend: 0x0, symName: __ZN6Parser14conditionalStmEv, symObjAddr: 0x11D38, symBinAddr: 0x100016308, symSize: 0x1C4 }
  - { offsetInCU: 0x2C2BF, offset: 0x2C2BF, size: 0x8, addend: 0x0, symName: __ZN6Parser7loopStmEv, symObjAddr: 0x11EFC, symBinAddr: 0x1000164CC, symSize: 0x160 }
  - { offsetInCU: 0x2C2F5, offset: 0x2C2F5, size: 0x8, addend: 0x0, symName: __ZN6Parser9returnStmEv, symObjAddr: 0x1205C, symBinAddr: 0x10001662C, symSize: 0xC0 }
  - { offsetInCU: 0x2C32B, offset: 0x2C32B, size: 0x8, addend: 0x0, symName: __ZN6Parser8inputStmEv, symObjAddr: 0x1211C, symBinAddr: 0x1000166EC, symSize: 0x13C }
  - { offsetInCU: 0x2C361, offset: 0x2C361, size: 0x8, addend: 0x0, symName: __ZN6Parser9outputStmEv, symObjAddr: 0x12258, symBinAddr: 0x100016828, symSize: 0x11C }
  - { offsetInCU: 0x2C397, offset: 0x2C397, size: 0x8, addend: 0x0, symName: __ZN6Parser7assCallERNSt3__110unique_ptrI8TreenodeNS0_14default_deleteIS2_EEEE, symObjAddr: 0x12374, symBinAddr: 0x100016944, symSize: 0x180 }
  - { offsetInCU: 0x2C3CC, offset: 0x2C3CC, size: 0x8, addend: 0x0, symName: __ZN6Parser10expressionEv, symObjAddr: 0x124F4, symBinAddr: 0x100016AC4, symSize: 0x1F8 }
  - { offsetInCU: 0x2C426, offset: 0x2C426, size: 0x8, addend: 0x0, symName: __ZN6Parser9simpleExpEv, symObjAddr: 0x126EC, symBinAddr: 0x100016CBC, symSize: 0x224 }
  - { offsetInCU: 0x2C480, offset: 0x2C480, size: 0x8, addend: 0x0, symName: __ZN6Parser4termEv, symObjAddr: 0x12910, symBinAddr: 0x100016EE0, symSize: 0x224 }
  - { offsetInCU: 0x2C4DA, offset: 0x2C4DA, size: 0x8, addend: 0x0, symName: __ZN6Parser6factorEv, symObjAddr: 0x12B34, symBinAddr: 0x100017104, symSize: 0x290 }
  - { offsetInCU: 0x2C51F, offset: 0x2C51F, size: 0x8, addend: 0x0, symName: __ZN6Parser8variableEv, symObjAddr: 0x12DC4, symBinAddr: 0x100017394, symSize: 0x168 }
  - { offsetInCU: 0x2C555, offset: 0x2C555, size: 0x8, addend: 0x0, symName: __ZN6Parser8variMoreERNSt3__110unique_ptrI8TreenodeNS0_14default_deleteIS2_EEEE, symObjAddr: 0x12F2C, symBinAddr: 0x1000174FC, symSize: 0x408 }
  - { offsetInCU: 0x2C59F, offset: 0x2C59F, size: 0x8, addend: 0x0, symName: __ZN6Parser8fieldVarEv, symObjAddr: 0x13334, symBinAddr: 0x100017904, symSize: 0x168 }
  - { offsetInCU: 0x2C5D5, offset: 0x2C5D5, size: 0x8, addend: 0x0, symName: __ZN6Parser12fieldVarMoreERNSt3__110unique_ptrI8TreenodeNS0_14default_deleteIS2_EEEE, symObjAddr: 0x1349C, symBinAddr: 0x100017A6C, symSize: 0x32C }
  - { offsetInCU: 0x2C60A, offset: 0x2C60A, size: 0x8, addend: 0x0, symName: __ZN6Parser14assignmentRestERNSt3__110unique_ptrI8TreenodeNS0_14default_deleteIS2_EEEE, symObjAddr: 0x137C8, symBinAddr: 0x100017D98, symSize: 0x80 }
  - { offsetInCU: 0x2C63F, offset: 0x2C63F, size: 0x8, addend: 0x0, symName: __ZN6Parser11callStmRestERNSt3__110unique_ptrI8TreenodeNS0_14default_deleteIS2_EEEE, symObjAddr: 0x13848, symBinAddr: 0x100017E18, symSize: 0x74 }
  - { offsetInCU: 0x2C674, offset: 0x2C674, size: 0x8, addend: 0x0, symName: __ZN6Parser12actParamListEv, symObjAddr: 0x138BC, symBinAddr: 0x100017E8C, symSize: 0x21C }
  - { offsetInCU: 0x2C6AA, offset: 0x2C6AA, size: 0x8, addend: 0x0, symName: __ZN6Parser12actParamMoreEv, symObjAddr: 0x13AD8, symBinAddr: 0x1000180A8, symSize: 0x118 }
  - { offsetInCU: 0x2C6E0, offset: 0x2C6E0, size: 0x8, addend: 0x0, symName: __ZN6Parser12consumeTokenEv, symObjAddr: 0x13BF0, symBinAddr: 0x1000181C0, symSize: 0x5C }
  - { offsetInCU: 0x2C706, offset: 0x2C706, size: 0x8, addend: 0x0, symName: __ZNKSt3__16vectorI7MyTokenNS_9allocatorIS1_EEE4sizeB7v160006Ev, symObjAddr: 0x13C8C, symBinAddr: 0x10001825C, symSize: 0x28 }
  - { offsetInCU: 0x2C72C, offset: 0x2C72C, size: 0x8, addend: 0x0, symName: __ZNSt3__112basic_stringIcNS_11char_traitsIcEENS_9allocatorIcEEE6appendB7v160006ERKS5_, symObjAddr: 0x13CB4, symBinAddr: 0x100018284, symSize: 0x4C }
  - { offsetInCU: 0x2C761, offset: 0x2C761, size: 0x8, addend: 0x0, symName: __ZNKSt3__114basic_ofstreamIcNS_11char_traitsIcEEE7is_openEv, symObjAddr: 0x13D00, symBinAddr: 0x1000182D0, symSize: 0x2C }
  - { offsetInCU: 0x2C7CD, offset: 0x2C7CD, size: 0x8, addend: 0x0, symName: __ZNSt3__15stackIP8TreenodeNS_5dequeIS2_NS_9allocatorIS2_EEEEEC1B7v160006Ev, symObjAddr: 0x13D2C, symBinAddr: 0x1000182FC, symSize: 0x2C }
  - { offsetInCU: 0x2C7F7, offset: 0x2C7F7, size: 0x8, addend: 0x0, symName: __ZNSt3__15stackIP8TreenodeNS_5dequeIS2_NS_9allocatorIS2_EEEEE4pushB7v160006EOS2_, symObjAddr: 0x13D58, symBinAddr: 0x100018328, symSize: 0x2C }
  - { offsetInCU: 0x2C82B, offset: 0x2C82B, size: 0x8, addend: 0x0, symName: __ZNKSt3__15stackIP8TreenodeNS_5dequeIS2_NS_9allocatorIS2_EEEEE5emptyB7v160006Ev, symObjAddr: 0x13D84, symBinAddr: 0x100018354, symSize: 0x28 }
  - { offsetInCU: 0x2C851, offset: 0x2C851, size: 0x8, addend: 0x0, symName: __ZNSt3__15stackIP8TreenodeNS_5dequeIS2_NS_9allocatorIS2_EEEEE3topB7v160006Ev, symObjAddr: 0x13DAC, symBinAddr: 0x10001837C, symSize: 0x24 }
  - { offsetInCU: 0x2C877, offset: 0x2C877, size: 0x8, addend: 0x0, symName: __ZNSt3__15stackIP8TreenodeNS_5dequeIS2_NS_9allocatorIS2_EEEEE3popB7v160006Ev, symObjAddr: 0x13DD0, symBinAddr: 0x1000183A0, symSize: 0x24 }
  - { offsetInCU: 0x2C89D, offset: 0x2C89D, size: 0x8, addend: 0x0, symName: __ZNSt3__16vectorINS_12basic_stringIcNS_11char_traitsIcEENS_9allocatorIcEEEENS4_IS6_EEE5beginB7v160006Ev, symObjAddr: 0x13DF4, symBinAddr: 0x1000183C4, symSize: 0x30 }
  - { offsetInCU: 0x2C8C5, offset: 0x2C8C5, size: 0x8, addend: 0x0, symName: __ZNSt3__16vectorINS_12basic_stringIcNS_11char_traitsIcEENS_9allocatorIcEEEENS4_IS6_EEE3endB7v160006Ev, symObjAddr: 0x13E24, symBinAddr: 0x1000183F4, symSize: 0x30 }
  - { offsetInCU: 0x2C8ED, offset: 0x2C8ED, size: 0x8, addend: 0x0, symName: __ZNKSt3__111__wrap_iterIPNS_12basic_stringIcNS_11char_traitsIcEENS_9allocatorIcEEEEEdeB7v160006Ev, symObjAddr: 0x13E88, symBinAddr: 0x100018458, symSize: 0x18 }
  - { offsetInCU: 0x2C913, offset: 0x2C913, size: 0x8, addend: 0x0, symName: __ZNSt3__111__wrap_iterIPNS_12basic_stringIcNS_11char_traitsIcEENS_9allocatorIcEEEEEppB7v160006Ev, symObjAddr: 0x13EA0, symBinAddr: 0x100018470, symSize: 0x20 }
  - { offsetInCU: 0x2C939, offset: 0x2C939, size: 0x8, addend: 0x0, symName: __ZNSt3__15stackIP8TreenodeNS_5dequeIS2_NS_9allocatorIS2_EEEEED1Ev, symObjAddr: 0x13EC0, symBinAddr: 0x100018490, symSize: 0x2C }
  - { offsetInCU: 0x2C965, offset: 0x2C965, size: 0x8, addend: 0x0, symName: __ZNKSt3__113basic_filebufIcNS_11char_traitsIcEEE7is_openEv, symObjAddr: 0x13EEC, symBinAddr: 0x1000184BC, symSize: 0x24 }
  - { offsetInCU: 0x2C98D, offset: 0x2C98D, size: 0x8, addend: 0x0, symName: __ZNSt3__15stackIP8TreenodeNS_5dequeIS2_NS_9allocatorIS2_EEEEEC2B7v160006Ev, symObjAddr: 0x13F10, symBinAddr: 0x1000184E0, symSize: 0x2C }
  - { offsetInCU: 0x2C9B7, offset: 0x2C9B7, size: 0x8, addend: 0x0, symName: __ZNSt3__15dequeIP8TreenodeNS_9allocatorIS2_EEEC1B7v160006Ev, symObjAddr: 0x13F3C, symBinAddr: 0x10001850C, symSize: 0x2C }
  - { offsetInCU: 0x2C9E1, offset: 0x2C9E1, size: 0x8, addend: 0x0, symName: __ZNSt3__15dequeIP8TreenodeNS_9allocatorIS2_EEEC2B7v160006Ev, symObjAddr: 0x13F68, symBinAddr: 0x100018538, symSize: 0x50 }
  - { offsetInCU: 0x2CA0B, offset: 0x2CA0B, size: 0x8, addend: 0x0, symName: __ZNSt3__114__split_bufferIPP8TreenodeNS_9allocatorIS3_EEEC1Ev, symObjAddr: 0x13FB8, symBinAddr: 0x100018588, symSize: 0x2C }
  - { offsetInCU: 0x2CA3D, offset: 0x2CA3D, size: 0x8, addend: 0x0, symName: __ZNSt3__117__compressed_pairImNS_9allocatorIP8TreenodeEEEC1B7v160006IiNS_18__default_init_tagEEEOT_OT0_, symObjAddr: 0x13FE4, symBinAddr: 0x1000185B4, symSize: 0x3C }
  - { offsetInCU: 0x2CA95, offset: 0x2CA95, size: 0x8, addend: 0x0, symName: __ZNSt3__114__split_bufferIPP8TreenodeNS_9allocatorIS3_EEEC2Ev, symObjAddr: 0x14020, symBinAddr: 0x1000185F0, symSize: 0x50 }
  - { offsetInCU: 0x2CAC1, offset: 0x2CAC1, size: 0x8, addend: 0x0, symName: __ZNSt3__117__compressed_pairIPPP8TreenodeNS_9allocatorIS3_EEEC1B7v160006IDnNS_18__default_init_tagEEEOT_OT0_, symObjAddr: 0x14070, symBinAddr: 0x100018640, symSize: 0x3C }
  - { offsetInCU: 0x2CB19, offset: 0x2CB19, size: 0x8, addend: 0x0, symName: __ZNSt3__117__compressed_pairIPPP8TreenodeNS_9allocatorIS3_EEEC2B7v160006IDnNS_18__default_init_tagEEEOT_OT0_, symObjAddr: 0x140AC, symBinAddr: 0x10001867C, symSize: 0x40 }
  - { offsetInCU: 0x2CB71, offset: 0x2CB71, size: 0x8, addend: 0x0, symName: __ZNSt3__122__compressed_pair_elemIPPP8TreenodeLi0ELb0EEC2B7v160006IDnvEEOT_, symObjAddr: 0x140EC, symBinAddr: 0x1000186BC, symSize: 0x1C }
  - { offsetInCU: 0x2CBB3, offset: 0x2CBB3, size: 0x8, addend: 0x0, symName: __ZNSt3__122__compressed_pair_elemINS_9allocatorIPP8TreenodeEELi1ELb1EEC2B7v160006ENS_18__default_init_tagE, symObjAddr: 0x14108, symBinAddr: 0x1000186D8, symSize: 0x2C }
  - { offsetInCU: 0x2CBE7, offset: 0x2CBE7, size: 0x8, addend: 0x0, symName: __ZNSt3__19allocatorIPP8TreenodeEC2B7v160006Ev, symObjAddr: 0x14134, symBinAddr: 0x100018704, symSize: 0x2C }
  - { offsetInCU: 0x2CC11, offset: 0x2CC11, size: 0x8, addend: 0x0, symName: __ZNSt3__116__non_trivial_ifILb1ENS_9allocatorIPP8TreenodeEEEC2B7v160006Ev, symObjAddr: 0x14160, symBinAddr: 0x100018730, symSize: 0x14 }
  - { offsetInCU: 0x2CC3B, offset: 0x2CC3B, size: 0x8, addend: 0x0, symName: __ZNSt3__117__compressed_pairImNS_9allocatorIP8TreenodeEEEC2B7v160006IiNS_18__default_init_tagEEEOT_OT0_, symObjAddr: 0x14174, symBinAddr: 0x100018744, symSize: 0x40 }
  - { offsetInCU: 0x2CC93, offset: 0x2CC93, size: 0x8, addend: 0x0, symName: __ZNSt3__122__compressed_pair_elemImLi0ELb0EEC2B7v160006IivEEOT_, symObjAddr: 0x141B4, symBinAddr: 0x100018784, symSize: 0x24 }
  - { offsetInCU: 0x2CCD5, offset: 0x2CCD5, size: 0x8, addend: 0x0, symName: __ZNSt3__122__compressed_pair_elemINS_9allocatorIP8TreenodeEELi1ELb1EEC2B7v160006ENS_18__default_init_tagE, symObjAddr: 0x141D8, symBinAddr: 0x1000187A8, symSize: 0x2C }
  - { offsetInCU: 0x2CD09, offset: 0x2CD09, size: 0x8, addend: 0x0, symName: __ZNSt3__19allocatorIP8TreenodeEC2B7v160006Ev, symObjAddr: 0x14204, symBinAddr: 0x1000187D4, symSize: 0x2C }
  - { offsetInCU: 0x2CD33, offset: 0x2CD33, size: 0x8, addend: 0x0, symName: __ZNSt3__116__non_trivial_ifILb1ENS_9allocatorIP8TreenodeEEEC2B7v160006Ev, symObjAddr: 0x14230, symBinAddr: 0x100018800, symSize: 0x14 }
  - { offsetInCU: 0x2CD5D, offset: 0x2CD5D, size: 0x8, addend: 0x0, symName: __ZNSt3__15dequeIP8TreenodeNS_9allocatorIS2_EEE9push_backEOS2_, symObjAddr: 0x14244, symBinAddr: 0x100018814, symSize: 0xA0 }
  - { offsetInCU: 0x2CDA3, offset: 0x2CDA3, size: 0x8, addend: 0x0, symName: __ZNSt3__15dequeIP8TreenodeNS_9allocatorIS2_EEE7__allocB7v160006Ev, symObjAddr: 0x142E4, symBinAddr: 0x1000188B4, symSize: 0x28 }
  - { offsetInCU: 0x2CDC9, offset: 0x2CDC9, size: 0x8, addend: 0x0, symName: __ZNKSt3__15dequeIP8TreenodeNS_9allocatorIS2_EEE12__back_spareB7v160006Ev, symObjAddr: 0x1430C, symBinAddr: 0x1000188DC, symSize: 0x54 }
  - { offsetInCU: 0x2CDEF, offset: 0x2CDEF, size: 0x8, addend: 0x0, symName: __ZNSt3__15dequeIP8TreenodeNS_9allocatorIS2_EEE19__add_back_capacityEv, symObjAddr: 0x14360, symBinAddr: 0x100018930, symSize: 0x314 }
  - { offsetInCU: 0x2CEA4, offset: 0x2CEA4, size: 0x8, addend: 0x0, symName: __ZNSt3__116allocator_traitsINS_9allocatorIP8TreenodeEEE9constructB7v160006IS3_JS3_EvEEvRS4_PT_DpOT0_, symObjAddr: 0x14674, symBinAddr: 0x100018C44, symSize: 0x34 }
  - { offsetInCU: 0x2CEFB, offset: 0x2CEFB, size: 0x8, addend: 0x0, symName: __ZNSt3__15dequeIP8TreenodeNS_9allocatorIS2_EEE3endB7v160006Ev, symObjAddr: 0x146A8, symBinAddr: 0x100018C78, symSize: 0xCC }
  - { offsetInCU: 0x2CF3F, offset: 0x2CF3F, size: 0x8, addend: 0x0, symName: __ZNKSt3__116__deque_iteratorIP8TreenodePS2_RS2_PS3_lLl512EEdeB7v160006Ev, symObjAddr: 0x14774, symBinAddr: 0x100018D44, symSize: 0x18 }
  - { offsetInCU: 0x2CF65, offset: 0x2CF65, size: 0x8, addend: 0x0, symName: __ZNSt3__15dequeIP8TreenodeNS_9allocatorIS2_EEE6__sizeB7v160006Ev, symObjAddr: 0x1478C, symBinAddr: 0x100018D5C, symSize: 0x28 }
  - { offsetInCU: 0x2CF8B, offset: 0x2CF8B, size: 0x8, addend: 0x0, symName: __ZNSt3__117__compressed_pairImNS_9allocatorIP8TreenodeEEE6secondB7v160006Ev, symObjAddr: 0x147B4, symBinAddr: 0x100018D84, symSize: 0x24 }
  - { offsetInCU: 0x2CFB1, offset: 0x2CFB1, size: 0x8, addend: 0x0, symName: __ZNSt3__122__compressed_pair_elemINS_9allocatorIP8TreenodeEELi1ELb1EE5__getB7v160006Ev, symObjAddr: 0x147D8, symBinAddr: 0x100018DA8, symSize: 0x14 }
  - { offsetInCU: 0x2CFD7, offset: 0x2CFD7, size: 0x8, addend: 0x0, symName: __ZNKSt3__15dequeIP8TreenodeNS_9allocatorIS2_EEE10__capacityB7v160006Ev, symObjAddr: 0x147EC, symBinAddr: 0x100018DBC, symSize: 0x60 }
  - { offsetInCU: 0x2CFFD, offset: 0x2CFFD, size: 0x8, addend: 0x0, symName: __ZNKSt3__15dequeIP8TreenodeNS_9allocatorIS2_EEE4sizeB7v160006Ev, symObjAddr: 0x1484C, symBinAddr: 0x100018E1C, symSize: 0x28 }
  - { offsetInCU: 0x2D023, offset: 0x2D023, size: 0x8, addend: 0x0, symName: __ZNKSt3__114__split_bufferIPP8TreenodeNS_9allocatorIS3_EEE4sizeB7v160006Ev, symObjAddr: 0x14874, symBinAddr: 0x100018E44, symSize: 0x28 }
  - { offsetInCU: 0x2D049, offset: 0x2D049, size: 0x8, addend: 0x0, symName: __ZNKSt3__15dequeIP8TreenodeNS_9allocatorIS2_EEE6__sizeB7v160006Ev, symObjAddr: 0x1489C, symBinAddr: 0x100018E6C, symSize: 0x28 }
  - { offsetInCU: 0x2D06F, offset: 0x2D06F, size: 0x8, addend: 0x0, symName: __ZNKSt3__117__compressed_pairImNS_9allocatorIP8TreenodeEEE5firstB7v160006Ev, symObjAddr: 0x148C4, symBinAddr: 0x100018E94, symSize: 0x24 }
  - { offsetInCU: 0x2D095, offset: 0x2D095, size: 0x8, addend: 0x0, symName: __ZNKSt3__15dequeIP8TreenodeNS_9allocatorIS2_EEE13__front_spareB7v160006Ev, symObjAddr: 0x148E8, symBinAddr: 0x100018EB8, symSize: 0x18 }
  - { offsetInCU: 0x2D0BB, offset: 0x2D0BB, size: 0x8, addend: 0x0, symName: __ZNSt3__114__split_bufferIPP8TreenodeNS_9allocatorIS3_EEE5frontB7v160006Ev, symObjAddr: 0x14900, symBinAddr: 0x100018ED0, symSize: 0x18 }
  - { offsetInCU: 0x2D0E1, offset: 0x2D0E1, size: 0x8, addend: 0x0, symName: __ZNSt3__114__split_bufferIPP8TreenodeNS_9allocatorIS3_EEE9pop_frontB7v160006Ev, symObjAddr: 0x14918, symBinAddr: 0x100018EE8, symSize: 0x2C }
  - { offsetInCU: 0x2D107, offset: 0x2D107, size: 0x8, addend: 0x0, symName: __ZNSt3__114__split_bufferIPP8TreenodeNS_9allocatorIS3_EEE9push_backB7v160006ERKS3_, symObjAddr: 0x14944, symBinAddr: 0x100018F14, symSize: 0x260 }
  - { offsetInCU: 0x2D17F, offset: 0x2D17F, size: 0x8, addend: 0x0, symName: __ZNKSt3__114__split_bufferIPP8TreenodeNS_9allocatorIS3_EEE8capacityB7v160006Ev, symObjAddr: 0x14BA4, symBinAddr: 0x100019174, symSize: 0x40 }
  - { offsetInCU: 0x2D1A5, offset: 0x2D1A5, size: 0x8, addend: 0x0, symName: __ZNKSt3__114__split_bufferIPP8TreenodeNS_9allocatorIS3_EEE12__back_spareB7v160006Ev, symObjAddr: 0x14BE4, symBinAddr: 0x1000191B4, symSize: 0x40 }
  - { offsetInCU: 0x2D1CB, offset: 0x2D1CB, size: 0x8, addend: 0x0, symName: __ZNSt3__114__split_bufferIPP8TreenodeNS_9allocatorIS3_EEE9push_backEOS3_, symObjAddr: 0x14C24, symBinAddr: 0x1000191F4, symSize: 0x260 }
  - { offsetInCU: 0x2D243, offset: 0x2D243, size: 0x8, addend: 0x0, symName: __ZNSt3__116allocator_traitsINS_9allocatorIP8TreenodeEEE8allocateB7v160006ERS4_m, symObjAddr: 0x14E84, symBinAddr: 0x100019454, symSize: 0x2C }
  - { offsetInCU: 0x2D276, offset: 0x2D276, size: 0x8, addend: 0x0, symName: __ZNSt3__114__split_bufferIPP8TreenodeNS_9allocatorIS3_EEE10push_frontEOS3_, symObjAddr: 0x14EB0, symBinAddr: 0x100019480, symSize: 0x25C }
  - { offsetInCU: 0x2D2EE, offset: 0x2D2EE, size: 0x8, addend: 0x0, symName: __ZNSt3__114__split_bufferIPP8TreenodeNS_9allocatorIS3_EEE7__allocB7v160006Ev, symObjAddr: 0x1510C, symBinAddr: 0x1000196DC, symSize: 0x28 }
  - { offsetInCU: 0x2D314, offset: 0x2D314, size: 0x8, addend: 0x0, symName: __ZNSt3__114__split_bufferIPP8TreenodeRNS_9allocatorIS3_EEEC1EmmS6_, symObjAddr: 0x15134, symBinAddr: 0x100019704, symSize: 0x44 }
  - { offsetInCU: 0x2D370, offset: 0x2D370, size: 0x8, addend: 0x0, symName: __ZNSt3__122__allocator_destructorINS_9allocatorIP8TreenodeEEEC1B7v160006ERS4_m, symObjAddr: 0x15178, symBinAddr: 0x100019748, symSize: 0x3C }
  - { offsetInCU: 0x2D446, offset: 0x2D446, size: 0x8, addend: 0x0, symName: __ZNSt3__110unique_ptrIPP8TreenodeNS_22__allocator_destructorINS_9allocatorIS2_EEEEEC1B7v160006ILb1EvEES3_NS_16__dependent_typeINS_27__unique_ptr_deleter_sfinaeIS7_EEXT_EE20__good_rval_ref_typeE, symObjAddr: 0x151B4, symBinAddr: 0x100019784, symSize: 0x3C }
  - { offsetInCU: 0x2D497, offset: 0x2D497, size: 0x8, addend: 0x0, symName: __ZNSt3__114__split_bufferIPP8TreenodeRNS_9allocatorIS3_EEE9push_backEOS3_, symObjAddr: 0x151F0, symBinAddr: 0x1000197C0, symSize: 0x260 }
  - { offsetInCU: 0x2D50F, offset: 0x2D50F, size: 0x8, addend: 0x0, symName: __ZNKSt3__110unique_ptrIPP8TreenodeNS_22__allocator_destructorINS_9allocatorIS2_EEEEE3getB7v160006Ev, symObjAddr: 0x15450, symBinAddr: 0x100019A20, symSize: 0x28 }
  - { offsetInCU: 0x2D535, offset: 0x2D535, size: 0x8, addend: 0x0, symName: __ZNSt3__110unique_ptrIPP8TreenodeNS_22__allocator_destructorINS_9allocatorIS2_EEEEE7releaseB7v160006Ev, symObjAddr: 0x15478, symBinAddr: 0x100019A48, symSize: 0x44 }
  - { offsetInCU: 0x2D56A, offset: 0x2D56A, size: 0x8, addend: 0x0, symName: __ZNSt3__114__split_bufferIPP8TreenodeNS_9allocatorIS3_EEE3endB7v160006Ev, symObjAddr: 0x154BC, symBinAddr: 0x100019A8C, symSize: 0x18 }
  - { offsetInCU: 0x2D590, offset: 0x2D590, size: 0x8, addend: 0x0, symName: __ZNSt3__114__split_bufferIPP8TreenodeNS_9allocatorIS3_EEE5beginB7v160006Ev, symObjAddr: 0x154D4, symBinAddr: 0x100019AA4, symSize: 0x18 }
  - { offsetInCU: 0x2D5B6, offset: 0x2D5B6, size: 0x8, addend: 0x0, symName: __ZNSt3__114__split_bufferIPP8TreenodeRNS_9allocatorIS3_EEE10push_frontERKS3_, symObjAddr: 0x154EC, symBinAddr: 0x100019ABC, symSize: 0x25C }
  - { offsetInCU: 0x2D62E, offset: 0x2D62E, size: 0x8, addend: 0x0, symName: __ZNSt3__114__split_bufferIPP8TreenodeNS_9allocatorIS3_EEE9__end_capB7v160006Ev, symObjAddr: 0x15784, symBinAddr: 0x100019D54, symSize: 0x28 }
  - { offsetInCU: 0x2D654, offset: 0x2D654, size: 0x8, addend: 0x0, symName: __ZNSt3__114__split_bufferIPP8TreenodeRNS_9allocatorIS3_EEE9__end_capB7v160006Ev, symObjAddr: 0x157AC, symBinAddr: 0x100019D7C, symSize: 0x28 }
  - { offsetInCU: 0x2D67A, offset: 0x2D67A, size: 0x8, addend: 0x0, symName: __ZNSt3__110unique_ptrIPP8TreenodeNS_22__allocator_destructorINS_9allocatorIS2_EEEEED1B7v160006Ev, symObjAddr: 0x157D4, symBinAddr: 0x100019DA4, symSize: 0x2C }
  - { offsetInCU: 0x2D6A4, offset: 0x2D6A4, size: 0x8, addend: 0x0, symName: __ZNSt3__114__split_bufferIPP8TreenodeRNS_9allocatorIS3_EEED1Ev, symObjAddr: 0x15800, symBinAddr: 0x100019DD0, symSize: 0x2C }
  - { offsetInCU: 0x2D6D0, offset: 0x2D6D0, size: 0x8, addend: 0x0, symName: __ZNSt3__114__split_bufferIPP8TreenodeNS_9allocatorIS3_EEE19__destruct_at_beginB7v160006EPS3_, symObjAddr: 0x1582C, symBinAddr: 0x100019DFC, symSize: 0x2C }
  - { offsetInCU: 0x2D704, offset: 0x2D704, size: 0x8, addend: 0x0, symName: __ZNSt3__114__split_bufferIPP8TreenodeNS_9allocatorIS3_EEE19__destruct_at_beginEPS3_NS_17integral_constantIbLb1EEE, symObjAddr: 0x15858, symBinAddr: 0x100019E28, symSize: 0x20 }
  - { offsetInCU: 0x2D744, offset: 0x2D744, size: 0x8, addend: 0x0, symName: __ZNSt3__114__split_bufferIPP8TreenodeRNS_9allocatorIS3_EEE18__construct_at_endINS_13move_iteratorIPS3_EEEENS_9enable_ifIXsr27__is_cpp17_forward_iteratorIT_EE5valueEvE4typeESD_SD_, symObjAddr: 0x158B8, symBinAddr: 0x100019E88, symSize: 0xFC }
  - { offsetInCU: 0x2D7A0, offset: 0x2D7A0, size: 0x8, addend: 0x0, symName: __ZNSt3__113move_iteratorIPPP8TreenodeEC1B7v160006ES4_, symObjAddr: 0x159B4, symBinAddr: 0x100019F84, symSize: 0x34 }
  - { offsetInCU: 0x2D7D8, offset: 0x2D7D8, size: 0x8, addend: 0x0, symName: __ZNSt3__116allocator_traitsINS_9allocatorIPP8TreenodeEEE9constructB7v160006IS4_JRKS4_EvEEvRS5_PT_DpOT0_, symObjAddr: 0x159E8, symBinAddr: 0x100019FB8, symSize: 0x34 }
  - { offsetInCU: 0x2D857, offset: 0x2D857, size: 0x8, addend: 0x0, symName: __ZNKSt3__114__move_trivialclB7v160006IPP8TreenodeS4_Li0EEENS_4pairIPT_PT0_EES7_S7_S9_, symObjAddr: 0x15BCC, symBinAddr: 0x10001A19C, symSize: 0x48 }
  - { offsetInCU: 0x2D8C5, offset: 0x2D8C5, size: 0x8, addend: 0x0, symName: __ZNSt3__14pairIPPP8TreenodeS4_EC1B7v160006IRS4_S4_LPv0EEEOT_OT0_, symObjAddr: 0x15D94, symBinAddr: 0x10001A364, symSize: 0x3C }
  - { offsetInCU: 0x2D923, offset: 0x2D923, size: 0x8, addend: 0x0, symName: __ZNSt3__14pairIPPP8TreenodeS4_EC2B7v160006IRS4_S4_LPv0EEEOT_OT0_, symObjAddr: 0x15DD0, symBinAddr: 0x10001A3A0, symSize: 0x34 }
  - { offsetInCU: 0x2D981, offset: 0x2D981, size: 0x8, addend: 0x0, symName: __ZNSt3__118__unwrap_iter_implIPPP8TreenodeLb1EE8__unwrapB7v160006ES4_, symObjAddr: 0x15E04, symBinAddr: 0x10001A3D4, symSize: 0x24 }
  - { offsetInCU: 0x2D9A4, offset: 0x2D9A4, size: 0x8, addend: 0x0, symName: __ZNSt3__14pairIPPP8TreenodeS4_EC1B7v160006IS4_S4_LPv0EEEOT_OT0_, symObjAddr: 0x15E28, symBinAddr: 0x10001A3F8, symSize: 0x3C }
  - { offsetInCU: 0x2DA02, offset: 0x2DA02, size: 0x8, addend: 0x0, symName: __ZNSt3__14pairIPPP8TreenodeS4_EC2B7v160006IS4_S4_LPv0EEEOT_OT0_, symObjAddr: 0x15E64, symBinAddr: 0x10001A434, symSize: 0x34 }
  - { offsetInCU: 0x2DA60, offset: 0x2DA60, size: 0x8, addend: 0x0, symName: __ZNSt3__118__unwrap_iter_implIPPP8TreenodeLb1EE8__rewrapB7v160006ES4_S4_, symObjAddr: 0x15E98, symBinAddr: 0x10001A468, symSize: 0x50 }
  - { offsetInCU: 0x2DA9D, offset: 0x2DA9D, size: 0x8, addend: 0x0, symName: __ZNSt3__114__split_bufferIPP8TreenodeRNS_9allocatorIS3_EEE21_ConstructTransactionC1B7v160006EPPS3_m, symObjAddr: 0x15F24, symBinAddr: 0x10001A4F4, symSize: 0x3C }
  - { offsetInCU: 0x2DAE3, offset: 0x2DAE3, size: 0x8, addend: 0x0, symName: __ZNSt3__116allocator_traitsINS_9allocatorIPP8TreenodeEEE9constructB7v160006IS4_JS4_EvEEvRS5_PT_DpOT0_, symObjAddr: 0x15F60, symBinAddr: 0x10001A530, symSize: 0x34 }
  - { offsetInCU: 0x2DB3A, offset: 0x2DB3A, size: 0x8, addend: 0x0, symName: __ZNSt3__114__split_bufferIPP8TreenodeRNS_9allocatorIS3_EEE7__allocB7v160006Ev, symObjAddr: 0x15F94, symBinAddr: 0x10001A564, symSize: 0x28 }
  - { offsetInCU: 0x2DB60, offset: 0x2DB60, size: 0x8, addend: 0x0, symName: __ZNKSt3__113move_iteratorIPPP8TreenodeEdeB7v160006Ev, symObjAddr: 0x15FBC, symBinAddr: 0x10001A58C, symSize: 0x18 }
  - { offsetInCU: 0x2DB86, offset: 0x2DB86, size: 0x8, addend: 0x0, symName: __ZNSt3__113move_iteratorIPPP8TreenodeEppB7v160006Ev, symObjAddr: 0x15FD4, symBinAddr: 0x10001A5A4, symSize: 0x20 }
  - { offsetInCU: 0x2DBAC, offset: 0x2DBAC, size: 0x8, addend: 0x0, symName: __ZNSt3__114__split_bufferIPP8TreenodeRNS_9allocatorIS3_EEE21_ConstructTransactionD1B7v160006Ev, symObjAddr: 0x15FF4, symBinAddr: 0x10001A5C4, symSize: 0x2C }
  - { offsetInCU: 0x2DBD6, offset: 0x2DBD6, size: 0x8, addend: 0x0, symName: __ZNKSt3__113move_iteratorIPPP8TreenodeE4baseB7v160006Ev, symObjAddr: 0x16098, symBinAddr: 0x10001A668, symSize: 0x18 }
  - { offsetInCU: 0x2DBFC, offset: 0x2DBFC, size: 0x8, addend: 0x0, symName: __ZNSt3__114__split_bufferIPP8TreenodeRNS_9allocatorIS3_EEE21_ConstructTransactionC2B7v160006EPPS3_m, symObjAddr: 0x160B0, symBinAddr: 0x10001A680, symSize: 0x44 }
  - { offsetInCU: 0x2DC42, offset: 0x2DC42, size: 0x8, addend: 0x0, symName: __ZNSt3__19allocatorIPP8TreenodeE9constructB7v160006IS3_JS3_EEEvPT_DpOT0_, symObjAddr: 0x160F4, symBinAddr: 0x10001A6C4, symSize: 0x28 }
  - { offsetInCU: 0x2DC98, offset: 0x2DC98, size: 0x8, addend: 0x0, symName: __ZNSt3__117__compressed_pairIPPP8TreenodeRNS_9allocatorIS3_EEE6secondB7v160006Ev, symObjAddr: 0x1611C, symBinAddr: 0x10001A6EC, symSize: 0x28 }
  - { offsetInCU: 0x2DCBE, offset: 0x2DCBE, size: 0x8, addend: 0x0, symName: __ZNSt3__122__compressed_pair_elemIRNS_9allocatorIPP8TreenodeEELi1ELb0EE5__getB7v160006Ev, symObjAddr: 0x16144, symBinAddr: 0x10001A714, symSize: 0x18 }
  - { offsetInCU: 0x2DCE4, offset: 0x2DCE4, size: 0x8, addend: 0x0, symName: __ZNSt3__114__split_bufferIPP8TreenodeRNS_9allocatorIS3_EEE21_ConstructTransactionD2B7v160006Ev, symObjAddr: 0x1615C, symBinAddr: 0x10001A72C, symSize: 0x20 }
  - { offsetInCU: 0x2DD0E, offset: 0x2DD0E, size: 0x8, addend: 0x0, symName: __ZNSt3__113move_iteratorIPPP8TreenodeEC2B7v160006ES4_, symObjAddr: 0x1617C, symBinAddr: 0x10001A74C, symSize: 0x20 }
  - { offsetInCU: 0x2DD46, offset: 0x2DD46, size: 0x8, addend: 0x0, symName: __ZNSt3__19allocatorIPP8TreenodeE9constructB7v160006IS3_JRKS3_EEEvPT_DpOT0_, symObjAddr: 0x1619C, symBinAddr: 0x10001A76C, symSize: 0x28 }
  - { offsetInCU: 0x2DD9C, offset: 0x2DD9C, size: 0x8, addend: 0x0, symName: __ZNKSt3__114__split_bufferIPP8TreenodeNS_9allocatorIS3_EEE9__end_capB7v160006Ev, symObjAddr: 0x161C4, symBinAddr: 0x10001A794, symSize: 0x28 }
  - { offsetInCU: 0x2DDC2, offset: 0x2DDC2, size: 0x8, addend: 0x0, symName: __ZNKSt3__117__compressed_pairIPPP8TreenodeNS_9allocatorIS3_EEE5firstB7v160006Ev, symObjAddr: 0x161EC, symBinAddr: 0x10001A7BC, symSize: 0x24 }
  - { offsetInCU: 0x2DDE8, offset: 0x2DDE8, size: 0x8, addend: 0x0, symName: __ZNKSt3__122__compressed_pair_elemIPPP8TreenodeLi0ELb0EE5__getB7v160006Ev, symObjAddr: 0x16210, symBinAddr: 0x10001A7E0, symSize: 0x14 }
  - { offsetInCU: 0x2DE0E, offset: 0x2DE0E, size: 0x8, addend: 0x0, symName: __ZNSt3__19allocatorIP8TreenodeE8allocateB7v160006Em, symObjAddr: 0x16224, symBinAddr: 0x10001A7F4, symSize: 0x58 }
  - { offsetInCU: 0x2DE4D, offset: 0x2DE4D, size: 0x8, addend: 0x0, symName: __ZNSt3__116allocator_traitsINS_9allocatorIP8TreenodeEEE8max_sizeB7v160006IS4_vEEmRKS4_, symObjAddr: 0x1627C, symBinAddr: 0x10001A84C, symSize: 0x24 }
  - { offsetInCU: 0x2DE7B, offset: 0x2DE7B, size: 0x8, addend: 0x0, symName: __ZNKSt3__19allocatorIP8TreenodeE8max_sizeB7v160006Ev, symObjAddr: 0x162A0, symBinAddr: 0x10001A870, symSize: 0x14 }
  - { offsetInCU: 0x2DEAD, offset: 0x2DEAD, size: 0x8, addend: 0x0, symName: __ZNKSt3__123__move_backward_trivialclB7v160006IPP8TreenodeS4_Li0EEENS_4pairIPT_PT0_EES7_S7_S9_, symObjAddr: 0x16430, symBinAddr: 0x10001AA00, symSize: 0x48 }
  - { offsetInCU: 0x2DF15, offset: 0x2DF15, size: 0x8, addend: 0x0, symName: __ZNSt3__14pairIPPP8TreenodeS4_EC1B7v160006IRS4_S7_LPv0EEEOT_OT0_, symObjAddr: 0x16544, symBinAddr: 0x10001AB14, symSize: 0x3C }
  - { offsetInCU: 0x2DF73, offset: 0x2DF73, size: 0x8, addend: 0x0, symName: __ZNSt3__14pairIPPP8TreenodeS4_EC2B7v160006IRS4_S7_LPv0EEEOT_OT0_, symObjAddr: 0x16580, symBinAddr: 0x10001AB50, symSize: 0x34 }
  - { offsetInCU: 0x2DFD1, offset: 0x2DFD1, size: 0x8, addend: 0x0, symName: __ZNSt3__117__compressed_pairIPPP8TreenodeNS_9allocatorIS3_EEE6secondB7v160006Ev, symObjAddr: 0x165B4, symBinAddr: 0x10001AB84, symSize: 0x24 }
  - { offsetInCU: 0x2DFF7, offset: 0x2DFF7, size: 0x8, addend: 0x0, symName: __ZNSt3__122__compressed_pair_elemINS_9allocatorIPP8TreenodeEELi1ELb1EE5__getB7v160006Ev, symObjAddr: 0x165D8, symBinAddr: 0x10001ABA8, symSize: 0x14 }
  - { offsetInCU: 0x2E01D, offset: 0x2E01D, size: 0x8, addend: 0x0, symName: __ZNSt3__114__split_bufferIPP8TreenodeRNS_9allocatorIS3_EEEC2EmmS6_, symObjAddr: 0x165EC, symBinAddr: 0x10001ABBC, symSize: 0xD4 }
  - { offsetInCU: 0x2E090, offset: 0x2E090, size: 0x8, addend: 0x0, symName: __ZNSt3__117__compressed_pairIPPP8TreenodeRNS_9allocatorIS3_EEEC1B7v160006IDnS7_EEOT_OT0_, symObjAddr: 0x166C0, symBinAddr: 0x10001AC90, symSize: 0x3C }
  - { offsetInCU: 0x2E0E8, offset: 0x2E0E8, size: 0x8, addend: 0x0, symName: __ZNSt3__117__compressed_pairIPPP8TreenodeRNS_9allocatorIS3_EEEC2B7v160006IDnS7_EEOT_OT0_, symObjAddr: 0x1673C, symBinAddr: 0x10001AD0C, symSize: 0x48 }
  - { offsetInCU: 0x2E140, offset: 0x2E140, size: 0x8, addend: 0x0, symName: __ZNSt3__122__compressed_pair_elemIRNS_9allocatorIPP8TreenodeEELi1ELb0EEC2B7v160006IS6_vEEOT_, symObjAddr: 0x16784, symBinAddr: 0x10001AD54, symSize: 0x20 }
  - { offsetInCU: 0x2E182, offset: 0x2E182, size: 0x8, addend: 0x0, symName: __ZNSt3__19allocatorIPP8TreenodeE8allocateB7v160006Em, symObjAddr: 0x167A4, symBinAddr: 0x10001AD74, symSize: 0x58 }
  - { offsetInCU: 0x2E1C1, offset: 0x2E1C1, size: 0x8, addend: 0x0, symName: __ZNSt3__116allocator_traitsINS_9allocatorIPP8TreenodeEEE8max_sizeB7v160006IS5_vEEmRKS5_, symObjAddr: 0x167FC, symBinAddr: 0x10001ADCC, symSize: 0x24 }
  - { offsetInCU: 0x2E1EF, offset: 0x2E1EF, size: 0x8, addend: 0x0, symName: __ZNKSt3__19allocatorIPP8TreenodeE8max_sizeB7v160006Ev, symObjAddr: 0x16820, symBinAddr: 0x10001ADF0, symSize: 0x14 }
  - { offsetInCU: 0x2E215, offset: 0x2E215, size: 0x8, addend: 0x0, symName: __ZNSt3__122__allocator_destructorINS_9allocatorIP8TreenodeEEEC2B7v160006ERS4_m, symObjAddr: 0x16834, symBinAddr: 0x10001AE04, symSize: 0x2C }
  - { offsetInCU: 0x2E25B, offset: 0x2E25B, size: 0x8, addend: 0x0, symName: __ZNSt3__110unique_ptrIPP8TreenodeNS_22__allocator_destructorINS_9allocatorIS2_EEEEEC2B7v160006ILb1EvEES3_NS_16__dependent_typeINS_27__unique_ptr_deleter_sfinaeIS7_EEXT_EE20__good_rval_ref_typeE, symObjAddr: 0x16860, symBinAddr: 0x10001AE30, symSize: 0x48 }
  - { offsetInCU: 0x2E2AC, offset: 0x2E2AC, size: 0x8, addend: 0x0, symName: __ZNSt3__117__compressed_pairIPP8TreenodeNS_22__allocator_destructorINS_9allocatorIS2_EEEEEC1B7v160006IRS3_S7_EEOT_OT0_, symObjAddr: 0x168A8, symBinAddr: 0x10001AE78, symSize: 0x3C }
  - { offsetInCU: 0x2E304, offset: 0x2E304, size: 0x8, addend: 0x0, symName: __ZNSt3__117__compressed_pairIPP8TreenodeNS_22__allocator_destructorINS_9allocatorIS2_EEEEEC2B7v160006IRS3_S7_EEOT_OT0_, symObjAddr: 0x168E4, symBinAddr: 0x10001AEB4, symSize: 0x48 }
  - { offsetInCU: 0x2E35C, offset: 0x2E35C, size: 0x8, addend: 0x0, symName: __ZNSt3__122__compressed_pair_elemIPP8TreenodeLi0ELb0EEC2B7v160006IRS3_vEEOT_, symObjAddr: 0x1692C, symBinAddr: 0x10001AEFC, symSize: 0x24 }
  - { offsetInCU: 0x2E39E, offset: 0x2E39E, size: 0x8, addend: 0x0, symName: __ZNSt3__122__compressed_pair_elemINS_22__allocator_destructorINS_9allocatorIP8TreenodeEEEELi1ELb0EEC2B7v160006IS6_vEEOT_, symObjAddr: 0x16950, symBinAddr: 0x10001AF20, symSize: 0x24 }
  - { offsetInCU: 0x2E3E0, offset: 0x2E3E0, size: 0x8, addend: 0x0, symName: __ZNKSt3__117__compressed_pairIPP8TreenodeNS_22__allocator_destructorINS_9allocatorIS2_EEEEE5firstB7v160006Ev, symObjAddr: 0x16974, symBinAddr: 0x10001AF44, symSize: 0x24 }
  - { offsetInCU: 0x2E406, offset: 0x2E406, size: 0x8, addend: 0x0, symName: __ZNKSt3__122__compressed_pair_elemIPP8TreenodeLi0ELb0EE5__getB7v160006Ev, symObjAddr: 0x16998, symBinAddr: 0x10001AF68, symSize: 0x14 }
  - { offsetInCU: 0x2E42C, offset: 0x2E42C, size: 0x8, addend: 0x0, symName: __ZNSt3__117__compressed_pairIPP8TreenodeNS_22__allocator_destructorINS_9allocatorIS2_EEEEE5firstB7v160006Ev, symObjAddr: 0x169AC, symBinAddr: 0x10001AF7C, symSize: 0x24 }
  - { offsetInCU: 0x2E452, offset: 0x2E452, size: 0x8, addend: 0x0, symName: __ZNSt3__122__compressed_pair_elemIPP8TreenodeLi0ELb0EE5__getB7v160006Ev, symObjAddr: 0x169D0, symBinAddr: 0x10001AFA0, symSize: 0x14 }
  - { offsetInCU: 0x2E478, offset: 0x2E478, size: 0x8, addend: 0x0, symName: __ZNSt3__117__compressed_pairIPPP8TreenodeNS_9allocatorIS3_EEE5firstB7v160006Ev, symObjAddr: 0x169E4, symBinAddr: 0x10001AFB4, symSize: 0x24 }
  - { offsetInCU: 0x2E49E, offset: 0x2E49E, size: 0x8, addend: 0x0, symName: __ZNSt3__122__compressed_pair_elemIPPP8TreenodeLi0ELb0EE5__getB7v160006Ev, symObjAddr: 0x16A08, symBinAddr: 0x10001AFD8, symSize: 0x14 }
  - { offsetInCU: 0x2E4C4, offset: 0x2E4C4, size: 0x8, addend: 0x0, symName: __ZNSt3__117__compressed_pairIPPP8TreenodeRNS_9allocatorIS3_EEE5firstB7v160006Ev, symObjAddr: 0x16A1C, symBinAddr: 0x10001AFEC, symSize: 0x24 }
  - { offsetInCU: 0x2E4EA, offset: 0x2E4EA, size: 0x8, addend: 0x0, symName: __ZNSt3__110unique_ptrIPP8TreenodeNS_22__allocator_destructorINS_9allocatorIS2_EEEEED2B7v160006Ev, symObjAddr: 0x16A40, symBinAddr: 0x10001B010, symSize: 0x30 }
  - { offsetInCU: 0x2E514, offset: 0x2E514, size: 0x8, addend: 0x0, symName: __ZNSt3__110unique_ptrIPP8TreenodeNS_22__allocator_destructorINS_9allocatorIS2_EEEEE5resetB7v160006ES3_, symObjAddr: 0x16A70, symBinAddr: 0x10001B040, symSize: 0x78 }
  - { offsetInCU: 0x2E558, offset: 0x2E558, size: 0x8, addend: 0x0, symName: __ZNSt3__117__compressed_pairIPP8TreenodeNS_22__allocator_destructorINS_9allocatorIS2_EEEEE6secondB7v160006Ev, symObjAddr: 0x16AE8, symBinAddr: 0x10001B0B8, symSize: 0x28 }
  - { offsetInCU: 0x2E57E, offset: 0x2E57E, size: 0x8, addend: 0x0, symName: __ZNSt3__122__allocator_destructorINS_9allocatorIP8TreenodeEEEclB7v160006EPS3_, symObjAddr: 0x16B10, symBinAddr: 0x10001B0E0, symSize: 0x34 }
  - { offsetInCU: 0x2E5B2, offset: 0x2E5B2, size: 0x8, addend: 0x0, symName: __ZNSt3__122__compressed_pair_elemINS_22__allocator_destructorINS_9allocatorIP8TreenodeEEEELi1ELb0EE5__getB7v160006Ev, symObjAddr: 0x16B44, symBinAddr: 0x10001B114, symSize: 0x14 }
  - { offsetInCU: 0x2E5D8, offset: 0x2E5D8, size: 0x8, addend: 0x0, symName: __ZNSt3__116allocator_traitsINS_9allocatorIP8TreenodeEEE10deallocateB7v160006ERS4_PS3_m, symObjAddr: 0x16B58, symBinAddr: 0x10001B128, symSize: 0x34 }
  - { offsetInCU: 0x2E61A, offset: 0x2E61A, size: 0x8, addend: 0x0, symName: __ZNSt3__19allocatorIP8TreenodeE10deallocateB7v160006EPS2_m, symObjAddr: 0x16B8C, symBinAddr: 0x10001B15C, symSize: 0x40 }
  - { offsetInCU: 0x2E65C, offset: 0x2E65C, size: 0x8, addend: 0x0, symName: __ZNSt3__114__split_bufferIPP8TreenodeRNS_9allocatorIS3_EEED2Ev, symObjAddr: 0x16BCC, symBinAddr: 0x10001B19C, symSize: 0x8C }
  - { offsetInCU: 0x2E688, offset: 0x2E688, size: 0x8, addend: 0x0, symName: __ZNSt3__114__split_bufferIPP8TreenodeRNS_9allocatorIS3_EEE5clearB7v160006Ev, symObjAddr: 0x16C58, symBinAddr: 0x10001B228, symSize: 0x28 }
  - { offsetInCU: 0x2E6AE, offset: 0x2E6AE, size: 0x8, addend: 0x0, symName: __ZNSt3__116allocator_traitsINS_9allocatorIPP8TreenodeEEE10deallocateB7v160006ERS5_PS4_m, symObjAddr: 0x16C80, symBinAddr: 0x10001B250, symSize: 0x34 }
  - { offsetInCU: 0x2E6F0, offset: 0x2E6F0, size: 0x8, addend: 0x0, symName: __ZNKSt3__114__split_bufferIPP8TreenodeRNS_9allocatorIS3_EEE8capacityB7v160006Ev, symObjAddr: 0x16CB4, symBinAddr: 0x10001B284, symSize: 0x40 }
  - { offsetInCU: 0x2E716, offset: 0x2E716, size: 0x8, addend: 0x0, symName: __ZNSt3__114__split_bufferIPP8TreenodeRNS_9allocatorIS3_EEE17__destruct_at_endB7v160006EPS3_, symObjAddr: 0x16CF4, symBinAddr: 0x10001B2C4, symSize: 0x2C }
  - { offsetInCU: 0x2E74A, offset: 0x2E74A, size: 0x8, addend: 0x0, symName: __ZNSt3__114__split_bufferIPP8TreenodeRNS_9allocatorIS3_EEE17__destruct_at_endB7v160006EPS3_NS_17integral_constantIbLb0EEE, symObjAddr: 0x16D20, symBinAddr: 0x10001B2F0, symSize: 0x80 }
  - { offsetInCU: 0x2E78A, offset: 0x2E78A, size: 0x8, addend: 0x0, symName: __ZNSt3__116allocator_traitsINS_9allocatorIPP8TreenodeEEE7destroyB7v160006IS4_vEEvRS5_PT_, symObjAddr: 0x16DA0, symBinAddr: 0x10001B370, symSize: 0x2C }
  - { offsetInCU: 0x2E7C7, offset: 0x2E7C7, size: 0x8, addend: 0x0, symName: __ZNSt3__19allocatorIPP8TreenodeE7destroyB7v160006EPS3_, symObjAddr: 0x16DCC, symBinAddr: 0x10001B39C, symSize: 0x14 }
  - { offsetInCU: 0x2E7FB, offset: 0x2E7FB, size: 0x8, addend: 0x0, symName: __ZNSt3__19allocatorIPP8TreenodeE10deallocateB7v160006EPS3_m, symObjAddr: 0x16DE0, symBinAddr: 0x10001B3B0, symSize: 0x40 }
  - { offsetInCU: 0x2E83D, offset: 0x2E83D, size: 0x8, addend: 0x0, symName: __ZNKSt3__114__split_bufferIPP8TreenodeRNS_9allocatorIS3_EEE9__end_capB7v160006Ev, symObjAddr: 0x16E20, symBinAddr: 0x10001B3F0, symSize: 0x28 }
  - { offsetInCU: 0x2E863, offset: 0x2E863, size: 0x8, addend: 0x0, symName: __ZNKSt3__117__compressed_pairIPPP8TreenodeRNS_9allocatorIS3_EEE5firstB7v160006Ev, symObjAddr: 0x16E48, symBinAddr: 0x10001B418, symSize: 0x24 }
  - { offsetInCU: 0x2E889, offset: 0x2E889, size: 0x8, addend: 0x0, symName: __ZNSt3__19allocatorIP8TreenodeE9constructB7v160006IS2_JS2_EEEvPT_DpOT0_, symObjAddr: 0x16E6C, symBinAddr: 0x10001B43C, symSize: 0x28 }
  - { offsetInCU: 0x2E8DF, offset: 0x2E8DF, size: 0x8, addend: 0x0, symName: __ZNKSt3__114__split_bufferIPP8TreenodeNS_9allocatorIS3_EEE5emptyB7v160006Ev, symObjAddr: 0x16E94, symBinAddr: 0x10001B464, symSize: 0x28 }
  - { offsetInCU: 0x2E905, offset: 0x2E905, size: 0x8, addend: 0x0, symName: __ZNSt3__116__deque_iteratorIP8TreenodePS2_RS2_PS3_lLl512EEC1B7v160006ES5_S3_, symObjAddr: 0x16EBC, symBinAddr: 0x10001B48C, symSize: 0x3C }
  - { offsetInCU: 0x2E94D, offset: 0x2E94D, size: 0x8, addend: 0x0, symName: __ZNSt3__116__deque_iteratorIP8TreenodePS2_RS2_PS3_lLl512EEC2B7v160006ES5_S3_, symObjAddr: 0x16EF8, symBinAddr: 0x10001B4C8, symSize: 0x2C }
  - { offsetInCU: 0x2E995, offset: 0x2E995, size: 0x8, addend: 0x0, symName: __ZNSt3__117__compressed_pairImNS_9allocatorIP8TreenodeEEE5firstB7v160006Ev, symObjAddr: 0x16F24, symBinAddr: 0x10001B4F4, symSize: 0x24 }
  - { offsetInCU: 0x2E9BB, offset: 0x2E9BB, size: 0x8, addend: 0x0, symName: __ZNKSt3__15dequeIP8TreenodeNS_9allocatorIS2_EEE5emptyB7v160006Ev, symObjAddr: 0x16F48, symBinAddr: 0x10001B518, symSize: 0x30 }
  - { offsetInCU: 0x2E9E1, offset: 0x2E9E1, size: 0x8, addend: 0x0, symName: __ZNSt3__15dequeIP8TreenodeNS_9allocatorIS2_EEE4backEv, symObjAddr: 0x16F78, symBinAddr: 0x10001B548, symSize: 0x68 }
  - { offsetInCU: 0x2EA18, offset: 0x2EA18, size: 0x8, addend: 0x0, symName: __ZNSt3__15dequeIP8TreenodeNS_9allocatorIS2_EEE8pop_backEv, symObjAddr: 0x16FE0, symBinAddr: 0x10001B5B0, symSize: 0xB8 }
  - { offsetInCU: 0x2EA5E, offset: 0x2EA5E, size: 0x8, addend: 0x0, symName: __ZNSt3__116allocator_traitsINS_9allocatorIP8TreenodeEEE7destroyB7v160006IS3_vEEvRS4_PT_, symObjAddr: 0x17098, symBinAddr: 0x10001B668, symSize: 0x2C }
  - { offsetInCU: 0x2EA9B, offset: 0x2EA9B, size: 0x8, addend: 0x0, symName: __ZNSt3__15dequeIP8TreenodeNS_9allocatorIS2_EEE25__maybe_remove_back_spareB7v160006Eb, symObjAddr: 0x170D8, symBinAddr: 0x10001B6A8, symSize: 0xCC }
  - { offsetInCU: 0x2EAD0, offset: 0x2EAD0, size: 0x8, addend: 0x0, symName: __ZNSt3__19allocatorIP8TreenodeE7destroyB7v160006EPS2_, symObjAddr: 0x171A4, symBinAddr: 0x10001B774, symSize: 0x14 }
  - { offsetInCU: 0x2EB04, offset: 0x2EB04, size: 0x8, addend: 0x0, symName: __ZNKSt3__15dequeIP8TreenodeNS_9allocatorIS2_EEE19__back_spare_blocksB7v160006Ev, symObjAddr: 0x171B8, symBinAddr: 0x10001B788, symSize: 0x2C }
  - { offsetInCU: 0x2EB2A, offset: 0x2EB2A, size: 0x8, addend: 0x0, symName: __ZNSt3__114__split_bufferIPP8TreenodeNS_9allocatorIS3_EEE4backB7v160006Ev, symObjAddr: 0x171E4, symBinAddr: 0x10001B7B4, symSize: 0x1C }
  - { offsetInCU: 0x2EB50, offset: 0x2EB50, size: 0x8, addend: 0x0, symName: __ZNSt3__114__split_bufferIPP8TreenodeNS_9allocatorIS3_EEE8pop_backB7v160006Ev, symObjAddr: 0x17200, symBinAddr: 0x10001B7D0, symSize: 0x2C }
  - { offsetInCU: 0x2EB76, offset: 0x2EB76, size: 0x8, addend: 0x0, symName: __ZNSt3__114__split_bufferIPP8TreenodeNS_9allocatorIS3_EEE17__destruct_at_endB7v160006EPS3_, symObjAddr: 0x1722C, symBinAddr: 0x10001B7FC, symSize: 0x2C }
  - { offsetInCU: 0x2EBAA, offset: 0x2EBAA, size: 0x8, addend: 0x0, symName: __ZNSt3__114__split_bufferIPP8TreenodeNS_9allocatorIS3_EEE17__destruct_at_endB7v160006EPS3_NS_17integral_constantIbLb0EEE, symObjAddr: 0x17258, symBinAddr: 0x10001B828, symSize: 0x80 }
  - { offsetInCU: 0x2EBEA, offset: 0x2EBEA, size: 0x8, addend: 0x0, symName: __ZNSt3__16vectorINS_12basic_stringIcNS_11char_traitsIcEENS_9allocatorIcEEEENS4_IS6_EEE11__make_iterB7v160006EPS6_, symObjAddr: 0x172D8, symBinAddr: 0x10001B8A8, symSize: 0x34 }
  - { offsetInCU: 0x2EC1F, offset: 0x2EC1F, size: 0x8, addend: 0x0, symName: __ZNSt3__111__wrap_iterIPNS_12basic_stringIcNS_11char_traitsIcEENS_9allocatorIcEEEEEC1B7v160006EPKvS7_, symObjAddr: 0x1730C, symBinAddr: 0x10001B8DC, symSize: 0x3C }
  - { offsetInCU: 0x2EC65, offset: 0x2EC65, size: 0x8, addend: 0x0, symName: __ZNSt3__111__wrap_iterIPNS_12basic_stringIcNS_11char_traitsIcEENS_9allocatorIcEEEEEC2B7v160006EPKvS7_, symObjAddr: 0x17348, symBinAddr: 0x10001B918, symSize: 0x24 }
  - { offsetInCU: 0x2ECAB, offset: 0x2ECAB, size: 0x8, addend: 0x0, symName: __ZNKSt3__111__wrap_iterIPNS_12basic_stringIcNS_11char_traitsIcEENS_9allocatorIcEEEEE4baseB7v160006Ev, symObjAddr: 0x173B4, symBinAddr: 0x10001B984, symSize: 0x18 }
  - { offsetInCU: 0x2ECD1, offset: 0x2ECD1, size: 0x8, addend: 0x0, symName: __ZNSt3__15stackIP8TreenodeNS_5dequeIS2_NS_9allocatorIS2_EEEEED2Ev, symObjAddr: 0x173CC, symBinAddr: 0x10001B99C, symSize: 0x2C }
  - { offsetInCU: 0x2ECFD, offset: 0x2ECFD, size: 0x8, addend: 0x0, symName: __ZNSt3__15dequeIP8TreenodeNS_9allocatorIS2_EEED1B7v160006Ev, symObjAddr: 0x173F8, symBinAddr: 0x10001B9C8, symSize: 0x2C }
  - { offsetInCU: 0x2ED27, offset: 0x2ED27, size: 0x8, addend: 0x0, symName: __ZNSt3__15dequeIP8TreenodeNS_9allocatorIS2_EEED2B7v160006Ev, symObjAddr: 0x17424, symBinAddr: 0x10001B9F4, symSize: 0x9C }
  - { offsetInCU: 0x2ED7D, offset: 0x2ED7D, size: 0x8, addend: 0x0, symName: __ZNSt3__15dequeIP8TreenodeNS_9allocatorIS2_EEE5clearEv, symObjAddr: 0x174C0, symBinAddr: 0x10001BA90, symSize: 0x15C }
  - { offsetInCU: 0x2EDD8, offset: 0x2EDD8, size: 0x8, addend: 0x0, symName: __ZNSt3__114__split_bufferIPP8TreenodeNS_9allocatorIS3_EEED1Ev, symObjAddr: 0x1761C, symBinAddr: 0x10001BBEC, symSize: 0x2C }
  - { offsetInCU: 0x2EE04, offset: 0x2EE04, size: 0x8, addend: 0x0, symName: __ZNSt3__15dequeIP8TreenodeNS_9allocatorIS2_EEE5beginB7v160006Ev, symObjAddr: 0x17648, symBinAddr: 0x10001BC18, symSize: 0xA8 }
  - { offsetInCU: 0x2EE39, offset: 0x2EE39, size: 0x8, addend: 0x0, symName: __ZNSt3__116__deque_iteratorIP8TreenodePS2_RS2_PS3_lLl512EEppB7v160006Ev, symObjAddr: 0x17724, symBinAddr: 0x10001BCF4, symSize: 0x70 }
  - { offsetInCU: 0x2EE5F, offset: 0x2EE5F, size: 0x8, addend: 0x0, symName: __ZNSt3__114__split_bufferIPP8TreenodeNS_9allocatorIS3_EEED2Ev, symObjAddr: 0x177C4, symBinAddr: 0x10001BD94, symSize: 0x80 }
  - { offsetInCU: 0x2EE8B, offset: 0x2EE8B, size: 0x8, addend: 0x0, symName: __ZNSt3__114__split_bufferIPP8TreenodeNS_9allocatorIS3_EEE5clearB7v160006Ev, symObjAddr: 0x17844, symBinAddr: 0x10001BE14, symSize: 0x28 }
  - { offsetInCU: 0x2EEB1, offset: 0x2EEB1, size: 0x8, addend: 0x0, symName: __ZN6ParserD2Ev, symObjAddr: 0x1786C, symBinAddr: 0x10001BE3C, symSize: 0x38 }
  - { offsetInCU: 0x2EEE4, offset: 0x2EEE4, size: 0x8, addend: 0x0, symName: __ZNSt3__118basic_stringstreamIcNS_11char_traitsIcEENS_9allocatorIcEEED1Ev, symObjAddr: 0x178A4, symBinAddr: 0x10001BE74, symSize: 0x40 }
  - { offsetInCU: 0x2EF11, offset: 0x2EF11, size: 0x8, addend: 0x0, symName: __ZNSt3__118basic_stringstreamIcNS_11char_traitsIcEENS_9allocatorIcEEED2Ev, symObjAddr: 0x178E4, symBinAddr: 0x10001BEB4, symSize: 0x6C }
  - { offsetInCU: 0x2EF4B, offset: 0x2EF4B, size: 0x8, addend: 0x0, symName: __ZThn16_NSt3__118basic_stringstreamIcNS_11char_traitsIcEENS_9allocatorIcEEED1Ev, symObjAddr: 0x17950, symBinAddr: 0x10001BF20, symSize: 0x1C }
  - { offsetInCU: 0x2EF62, offset: 0x2EF62, size: 0x8, addend: 0x0, symName: __ZTv0_n24_NSt3__118basic_stringstreamIcNS_11char_traitsIcEENS_9allocatorIcEEED1Ev, symObjAddr: 0x1796C, symBinAddr: 0x10001BF3C, symSize: 0x28 }
  - { offsetInCU: 0x2EF7F, offset: 0x2EF7F, size: 0x8, addend: 0x0, symName: __ZNSt3__115basic_stringbufIcNS_11char_traitsIcEENS_9allocatorIcEEED1Ev, symObjAddr: 0x17994, symBinAddr: 0x10001BF64, symSize: 0x2C }
  - { offsetInCU: 0x2EFAC, offset: 0x2EFAC, size: 0x8, addend: 0x0, symName: __ZNSt3__115basic_stringbufIcNS_11char_traitsIcEENS_9allocatorIcEEED2Ev, symObjAddr: 0x179C0, symBinAddr: 0x10001BF90, symSize: 0x48 }
  - { offsetInCU: 0x2EFD9, offset: 0x2EFD9, size: 0x8, addend: 0x0, symName: __ZNSt3__112basic_stringIcNS_11char_traitsIcEENS_9allocatorIcEEEC2B7v160006Ev, symObjAddr: 0x17A08, symBinAddr: 0x10001BFD8, symSize: 0x4C }
  - { offsetInCU: 0x2F003, offset: 0x2F003, size: 0x8, addend: 0x0, symName: __ZNSt3__117__compressed_pairINS_12basic_stringIcNS_11char_traitsIcEENS_9allocatorIcEEE5__repES5_EC1B7v160006INS_18__default_init_tagESA_EEOT_OT0_, symObjAddr: 0x17A54, symBinAddr: 0x10001C024, symSize: 0x3C }
  - { offsetInCU: 0x2F05B, offset: 0x2F05B, size: 0x8, addend: 0x0, symName: __ZNSt3__117__compressed_pairINS_12basic_stringIcNS_11char_traitsIcEENS_9allocatorIcEEE5__repES5_EC2B7v160006INS_18__default_init_tagESA_EEOT_OT0_, symObjAddr: 0x17A90, symBinAddr: 0x10001C060, symSize: 0x3C }
  - { offsetInCU: 0x2F0B3, offset: 0x2F0B3, size: 0x8, addend: 0x0, symName: __ZNSt3__122__compressed_pair_elemINS_12basic_stringIcNS_11char_traitsIcEENS_9allocatorIcEEE5__repELi0ELb0EEC2B7v160006ENS_18__default_init_tagE, symObjAddr: 0x17ACC, symBinAddr: 0x10001C09C, symSize: 0x14 }
  - { offsetInCU: 0x2F0E7, offset: 0x2F0E7, size: 0x8, addend: 0x0, symName: __ZNSt3__122__compressed_pair_elemINS_9allocatorIcEELi1ELb1EEC2B7v160006ENS_18__default_init_tagE, symObjAddr: 0x17AE0, symBinAddr: 0x10001C0B0, symSize: 0x2C }
  - { offsetInCU: 0x2F11B, offset: 0x2F11B, size: 0x8, addend: 0x0, symName: __ZNSt3__19allocatorIcEC2B7v160006Ev, symObjAddr: 0x17B0C, symBinAddr: 0x10001C0DC, symSize: 0x2C }
  - { offsetInCU: 0x2F145, offset: 0x2F145, size: 0x8, addend: 0x0, symName: __ZNSt3__116__non_trivial_ifILb1ENS_9allocatorIcEEEC2B7v160006Ev, symObjAddr: 0x17B38, symBinAddr: 0x10001C108, symSize: 0x14 }
  - { offsetInCU: 0x2F16F, offset: 0x2F16F, size: 0x8, addend: 0x0, symName: __ZNSt3__113unordered_mapINS_12basic_stringIcNS_11char_traitsIcEENS_9allocatorIcEEEE7LexTypeNS_4hashIS6_EENS_8equal_toIS6_EENS4_INS_4pairIKS6_S7_EEEEEC2B7v160006Ev, symObjAddr: 0x17B4C, symBinAddr: 0x10001C11C, symSize: 0x3C }
  - { offsetInCU: 0x2F199, offset: 0x2F199, size: 0x8, addend: 0x0, symName: __ZNSt3__112__hash_tableINS_17__hash_value_typeINS_12basic_stringIcNS_11char_traitsIcEENS_9allocatorIcEEEE7LexTypeEENS_22__unordered_map_hasherIS7_S9_NS_4hashIS7_EENS_8equal_toIS7_EELb1EEENS_21__unordered_map_equalIS7_S9_SE_SC_Lb1EEENS5_IS9_EEEC1Ev, symObjAddr: 0x17B88, symBinAddr: 0x10001C158, symSize: 0x2C }
  - { offsetInCU: 0x2F1C5, offset: 0x2F1C5, size: 0x8, addend: 0x0, symName: __ZNSt3__112__hash_tableINS_17__hash_value_typeINS_12basic_stringIcNS_11char_traitsIcEENS_9allocatorIcEEEE7LexTypeEENS_22__unordered_map_hasherIS7_S9_NS_4hashIS7_EENS_8equal_toIS7_EELb1EEENS_21__unordered_map_equalIS7_S9_SE_SC_Lb1EEENS5_IS9_EEEC2Ev, symObjAddr: 0x17BC4, symBinAddr: 0x10001C194, symSize: 0x7C }
  - { offsetInCU: 0x2F1F1, offset: 0x2F1F1, size: 0x8, addend: 0x0, symName: __ZNSt3__110unique_ptrIA_PNS_16__hash_node_baseIPNS_11__hash_nodeINS_17__hash_value_typeINS_12basic_stringIcNS_11char_traitsIcEENS_9allocatorIcEEEE7LexTypeEEPvEEEENS_25__bucket_list_deallocatorINS7_ISG_EEEEEC1B7v160006ILb1EvEEv, symObjAddr: 0x17C40, symBinAddr: 0x10001C210, symSize: 0x2C }
  - { offsetInCU: 0x2F226, offset: 0x2F226, size: 0x8, addend: 0x0, symName: __ZNSt3__117__compressed_pairINS_16__hash_node_baseIPNS_11__hash_nodeINS_17__hash_value_typeINS_12basic_stringIcNS_11char_traitsIcEENS_9allocatorIcEEEE7LexTypeEEPvEEEENS7_ISD_EEEC1B7v160006ILb1EvEEv, symObjAddr: 0x17C6C, symBinAddr: 0x10001C23C, symSize: 0x2C }
  - { offsetInCU: 0x2F25B, offset: 0x2F25B, size: 0x8, addend: 0x0, symName: __ZNSt3__117__compressed_pairImNS_22__unordered_map_hasherINS_12basic_stringIcNS_11char_traitsIcEENS_9allocatorIcEEEENS_17__hash_value_typeIS7_7LexTypeEENS_4hashIS7_EENS_8equal_toIS7_EELb1EEEEC1B7v160006IiNS_18__default_init_tagEEEOT_OT0_, symObjAddr: 0x17C98, symBinAddr: 0x10001C268, symSize: 0x3C }
  - { offsetInCU: 0x2F2B9, offset: 0x2F2B9, size: 0x8, addend: 0x0, symName: __ZNSt3__117__compressed_pairIfNS_21__unordered_map_equalINS_12basic_stringIcNS_11char_traitsIcEENS_9allocatorIcEEEENS_17__hash_value_typeIS7_7LexTypeEENS_8equal_toIS7_EENS_4hashIS7_EELb1EEEEC1B7v160006IfNS_18__default_init_tagEEEOT_OT0_, symObjAddr: 0x17CD4, symBinAddr: 0x10001C2A4, symSize: 0x3C }
  - { offsetInCU: 0x2F311, offset: 0x2F311, size: 0x8, addend: 0x0, symName: __ZNSt3__110unique_ptrIA_PNS_16__hash_node_baseIPNS_11__hash_nodeINS_17__hash_value_typeINS_12basic_stringIcNS_11char_traitsIcEENS_9allocatorIcEEEE7LexTypeEEPvEEEENS_25__bucket_list_deallocatorINS7_ISG_EEEEEC2B7v160006ILb1EvEEv, symObjAddr: 0x17D10, symBinAddr: 0x10001C2E0, symSize: 0x3C }
  - { offsetInCU: 0x2F346, offset: 0x2F346, size: 0x8, addend: 0x0, symName: __ZNSt3__117__compressed_pairIPPNS_16__hash_node_baseIPNS_11__hash_nodeINS_17__hash_value_typeINS_12basic_stringIcNS_11char_traitsIcEENS_9allocatorIcEEEE7LexTypeEEPvEEEENS_25__bucket_list_deallocatorINS7_ISG_EEEEEC1B7v160006INS_16__value_init_tagESN_EEOT_OT0_, symObjAddr: 0x17D4C, symBinAddr: 0x10001C31C, symSize: 0x3C }
  - { offsetInCU: 0x2F39E, offset: 0x2F39E, size: 0x8, addend: 0x0, symName: __ZNSt3__117__compressed_pairIPPNS_16__hash_node_baseIPNS_11__hash_nodeINS_17__hash_value_typeINS_12basic_stringIcNS_11char_traitsIcEENS_9allocatorIcEEEE7LexTypeEEPvEEEENS_25__bucket_list_deallocatorINS7_ISG_EEEEEC2B7v160006INS_16__value_init_tagESN_EEOT_OT0_, symObjAddr: 0x17D88, symBinAddr: 0x10001C358, symSize: 0x40 }
  - { offsetInCU: 0x2F3F6, offset: 0x2F3F6, size: 0x8, addend: 0x0, symName: __ZNSt3__122__compressed_pair_elemIPPNS_16__hash_node_baseIPNS_11__hash_nodeINS_17__hash_value_typeINS_12basic_stringIcNS_11char_traitsIcEENS_9allocatorIcEEEE7LexTypeEEPvEEEELi0ELb0EEC2B7v160006ENS_16__value_init_tagE, symObjAddr: 0x17DC8, symBinAddr: 0x10001C398, symSize: 0x18 }
  - { offsetInCU: 0x2F42A, offset: 0x2F42A, size: 0x8, addend: 0x0, symName: __ZNSt3__122__compressed_pair_elemINS_25__bucket_list_deallocatorINS_9allocatorIPNS_16__hash_node_baseIPNS_11__hash_nodeINS_17__hash_value_typeINS_12basic_stringIcNS_11char_traitsIcEENS2_IcEEEE7LexTypeEEPvEEEEEEEELi1ELb0EEC2B7v160006ENS_16__value_init_tagE, symObjAddr: 0x17DE0, symBinAddr: 0x10001C3B0, symSize: 0x2C }
  - { offsetInCU: 0x2F45E, offset: 0x2F45E, size: 0x8, addend: 0x0, symName: __ZNSt3__125__bucket_list_deallocatorINS_9allocatorIPNS_16__hash_node_baseIPNS_11__hash_nodeINS_17__hash_value_typeINS_12basic_stringIcNS_11char_traitsIcEENS1_IcEEEE7LexTypeEEPvEEEEEEEC1B7v160006Ev, symObjAddr: 0x17E0C, symBinAddr: 0x10001C3DC, symSize: 0x2C }
  - { offsetInCU: 0x2F488, offset: 0x2F488, size: 0x8, addend: 0x0, symName: __ZNSt3__125__bucket_list_deallocatorINS_9allocatorIPNS_16__hash_node_baseIPNS_11__hash_nodeINS_17__hash_value_typeINS_12basic_stringIcNS_11char_traitsIcEENS1_IcEEEE7LexTypeEEPvEEEEEEEC2B7v160006Ev, symObjAddr: 0x17E38, symBinAddr: 0x10001C408, symSize: 0x40 }
  - { offsetInCU: 0x2F4B2, offset: 0x2F4B2, size: 0x8, addend: 0x0, symName: __ZNSt3__117__compressed_pairImNS_9allocatorIPNS_16__hash_node_baseIPNS_11__hash_nodeINS_17__hash_value_typeINS_12basic_stringIcNS_11char_traitsIcEENS1_IcEEEE7LexTypeEEPvEEEEEEEC1B7v160006IiNS_18__default_init_tagEEEOT_OT0_, symObjAddr: 0x17E78, symBinAddr: 0x10001C448, symSize: 0x3C }
  - { offsetInCU: 0x2F50A, offset: 0x2F50A, size: 0x8, addend: 0x0, symName: __ZNSt3__117__compressed_pairImNS_9allocatorIPNS_16__hash_node_baseIPNS_11__hash_nodeINS_17__hash_value_typeINS_12basic_stringIcNS_11char_traitsIcEENS1_IcEEEE7LexTypeEEPvEEEEEEEC2B7v160006IiNS_18__default_init_tagEEEOT_OT0_, symObjAddr: 0x17EB4, symBinAddr: 0x10001C484, symSize: 0x40 }
  - { offsetInCU: 0x2F562, offset: 0x2F562, size: 0x8, addend: 0x0, symName: __ZNSt3__122__compressed_pair_elemINS_9allocatorIPNS_16__hash_node_baseIPNS_11__hash_nodeINS_17__hash_value_typeINS_12basic_stringIcNS_11char_traitsIcEENS1_IcEEEE7LexTypeEEPvEEEEEELi1ELb1EEC2B7v160006ENS_18__default_init_tagE, symObjAddr: 0x17EF4, symBinAddr: 0x10001C4C4, symSize: 0x2C }
  - { offsetInCU: 0x2F596, offset: 0x2F596, size: 0x8, addend: 0x0, symName: __ZNSt3__19allocatorIPNS_16__hash_node_baseIPNS_11__hash_nodeINS_17__hash_value_typeINS_12basic_stringIcNS_11char_traitsIcEENS0_IcEEEE7LexTypeEEPvEEEEEC2B7v160006Ev, symObjAddr: 0x17F20, symBinAddr: 0x10001C4F0, symSize: 0x2C }
  - { offsetInCU: 0x2F5C0, offset: 0x2F5C0, size: 0x8, addend: 0x0, symName: __ZNSt3__116__non_trivial_ifILb1ENS_9allocatorIPNS_16__hash_node_baseIPNS_11__hash_nodeINS_17__hash_value_typeINS_12basic_stringIcNS_11char_traitsIcEENS1_IcEEEE7LexTypeEEPvEEEEEEEC2B7v160006Ev, symObjAddr: 0x17F4C, symBinAddr: 0x10001C51C, symSize: 0x14 }
  - { offsetInCU: 0x2F5EA, offset: 0x2F5EA, size: 0x8, addend: 0x0, symName: __ZNSt3__117__compressed_pairINS_16__hash_node_baseIPNS_11__hash_nodeINS_17__hash_value_typeINS_12basic_stringIcNS_11char_traitsIcEENS_9allocatorIcEEEE7LexTypeEEPvEEEENS7_ISD_EEEC2B7v160006ILb1EvEEv, symObjAddr: 0x17F60, symBinAddr: 0x10001C530, symSize: 0x34 }
  - { offsetInCU: 0x2F61F, offset: 0x2F61F, size: 0x8, addend: 0x0, symName: __ZNSt3__122__compressed_pair_elemINS_16__hash_node_baseIPNS_11__hash_nodeINS_17__hash_value_typeINS_12basic_stringIcNS_11char_traitsIcEENS_9allocatorIcEEEE7LexTypeEEPvEEEELi0ELb0EEC2B7v160006ENS_16__value_init_tagE, symObjAddr: 0x17F94, symBinAddr: 0x10001C564, symSize: 0x2C }
  - { offsetInCU: 0x2F653, offset: 0x2F653, size: 0x8, addend: 0x0, symName: __ZNSt3__122__compressed_pair_elemINS_9allocatorINS_11__hash_nodeINS_17__hash_value_typeINS_12basic_stringIcNS_11char_traitsIcEENS1_IcEEEE7LexTypeEEPvEEEELi1ELb1EEC2B7v160006ENS_16__value_init_tagE, symObjAddr: 0x17FC0, symBinAddr: 0x10001C590, symSize: 0x2C }
  - { offsetInCU: 0x2F687, offset: 0x2F687, size: 0x8, addend: 0x0, symName: __ZNSt3__116__hash_node_baseIPNS_11__hash_nodeINS_17__hash_value_typeINS_12basic_stringIcNS_11char_traitsIcEENS_9allocatorIcEEEE7LexTypeEEPvEEEC1B7v160006Ev, symObjAddr: 0x17FEC, symBinAddr: 0x10001C5BC, symSize: 0x2C }
  - { offsetInCU: 0x2F6B1, offset: 0x2F6B1, size: 0x8, addend: 0x0, symName: __ZNSt3__116__hash_node_baseIPNS_11__hash_nodeINS_17__hash_value_typeINS_12basic_stringIcNS_11char_traitsIcEENS_9allocatorIcEEEE7LexTypeEEPvEEEC2B7v160006Ev, symObjAddr: 0x18018, symBinAddr: 0x10001C5E8, symSize: 0x18 }
  - { offsetInCU: 0x2F6DB, offset: 0x2F6DB, size: 0x8, addend: 0x0, symName: __ZNSt3__19allocatorINS_11__hash_nodeINS_17__hash_value_typeINS_12basic_stringIcNS_11char_traitsIcEENS0_IcEEEE7LexTypeEEPvEEEC2B7v160006Ev, symObjAddr: 0x18030, symBinAddr: 0x10001C600, symSize: 0x2C }
  - { offsetInCU: 0x2F705, offset: 0x2F705, size: 0x8, addend: 0x0, symName: __ZNSt3__116__non_trivial_ifILb1ENS_9allocatorINS_11__hash_nodeINS_17__hash_value_typeINS_12basic_stringIcNS_11char_traitsIcEENS1_IcEEEE7LexTypeEEPvEEEEEC2B7v160006Ev, symObjAddr: 0x1805C, symBinAddr: 0x10001C62C, symSize: 0x14 }
  - { offsetInCU: 0x2F72F, offset: 0x2F72F, size: 0x8, addend: 0x0, symName: __ZNSt3__117__compressed_pairImNS_22__unordered_map_hasherINS_12basic_stringIcNS_11char_traitsIcEENS_9allocatorIcEEEENS_17__hash_value_typeIS7_7LexTypeEENS_4hashIS7_EENS_8equal_toIS7_EELb1EEEEC2B7v160006IiNS_18__default_init_tagEEEOT_OT0_, symObjAddr: 0x18070, symBinAddr: 0x10001C640, symSize: 0x40 }
  - { offsetInCU: 0x2F787, offset: 0x2F787, size: 0x8, addend: 0x0, symName: __ZNSt3__122__compressed_pair_elemINS_22__unordered_map_hasherINS_12basic_stringIcNS_11char_traitsIcEENS_9allocatorIcEEEENS_17__hash_value_typeIS7_7LexTypeEENS_4hashIS7_EENS_8equal_toIS7_EELb1EEELi1ELb1EEC2B7v160006ENS_18__default_init_tagE, symObjAddr: 0x180B0, symBinAddr: 0x10001C680, symSize: 0x2C }
  - { offsetInCU: 0x2F7BB, offset: 0x2F7BB, size: 0x8, addend: 0x0, symName: __ZNSt3__122__unordered_map_hasherINS_12basic_stringIcNS_11char_traitsIcEENS_9allocatorIcEEEENS_17__hash_value_typeIS6_7LexTypeEENS_4hashIS6_EENS_8equal_toIS6_EELb1EEC2B7v160006Ev, symObjAddr: 0x180DC, symBinAddr: 0x10001C6AC, symSize: 0x14 }
  - { offsetInCU: 0x2F7E5, offset: 0x2F7E5, size: 0x8, addend: 0x0, symName: __ZNSt3__117__compressed_pairIfNS_21__unordered_map_equalINS_12basic_stringIcNS_11char_traitsIcEENS_9allocatorIcEEEENS_17__hash_value_typeIS7_7LexTypeEENS_8equal_toIS7_EENS_4hashIS7_EELb1EEEEC2B7v160006IfNS_18__default_init_tagEEEOT_OT0_, symObjAddr: 0x180F0, symBinAddr: 0x10001C6C0, symSize: 0x40 }
  - { offsetInCU: 0x2F83D, offset: 0x2F83D, size: 0x8, addend: 0x0, symName: __ZNSt3__122__compressed_pair_elemIfLi0ELb0EEC2B7v160006IfvEEOT_, symObjAddr: 0x18130, symBinAddr: 0x10001C700, symSize: 0x24 }
  - { offsetInCU: 0x2F87F, offset: 0x2F87F, size: 0x8, addend: 0x0, symName: __ZNSt3__122__compressed_pair_elemINS_21__unordered_map_equalINS_12basic_stringIcNS_11char_traitsIcEENS_9allocatorIcEEEENS_17__hash_value_typeIS7_7LexTypeEENS_8equal_toIS7_EENS_4hashIS7_EELb1EEELi1ELb1EEC2B7v160006ENS_18__default_init_tagE, symObjAddr: 0x18154, symBinAddr: 0x10001C724, symSize: 0x2C }
  - { offsetInCU: 0x2F8B3, offset: 0x2F8B3, size: 0x8, addend: 0x0, symName: __ZNSt3__121__unordered_map_equalINS_12basic_stringIcNS_11char_traitsIcEENS_9allocatorIcEEEENS_17__hash_value_typeIS6_7LexTypeEENS_8equal_toIS6_EENS_4hashIS6_EELb1EEC2B7v160006Ev, symObjAddr: 0x18180, symBinAddr: 0x10001C750, symSize: 0x14 }
  - { offsetInCU: 0x2F8DD, offset: 0x2F8DD, size: 0x8, addend: 0x0, symName: __ZNSt3__113unordered_mapINS_12basic_stringIcNS_11char_traitsIcEENS_9allocatorIcEEEE7LexTypeNS_4hashIS6_EENS_8equal_toIS6_EENS4_INS_4pairIKS6_S7_EEEEED2B7v160006Ev, symObjAddr: 0x18194, symBinAddr: 0x10001C764, symSize: 0x2C }
  - { offsetInCU: 0x2F907, offset: 0x2F907, size: 0x8, addend: 0x0, symName: __ZNSt3__112__hash_tableINS_17__hash_value_typeINS_12basic_stringIcNS_11char_traitsIcEENS_9allocatorIcEEEE7LexTypeEENS_22__unordered_map_hasherIS7_S9_NS_4hashIS7_EENS_8equal_toIS7_EELb1EEENS_21__unordered_map_equalIS7_S9_SE_SC_Lb1EEENS5_IS9_EEED1Ev, symObjAddr: 0x181C0, symBinAddr: 0x10001C790, symSize: 0x2C }
  - { offsetInCU: 0x2F933, offset: 0x2F933, size: 0x8, addend: 0x0, symName: __ZNSt3__112__hash_tableINS_17__hash_value_typeINS_12basic_stringIcNS_11char_traitsIcEENS_9allocatorIcEEEE7LexTypeEENS_22__unordered_map_hasherIS7_S9_NS_4hashIS7_EENS_8equal_toIS7_EELb1EEENS_21__unordered_map_equalIS7_S9_SE_SC_Lb1EEENS5_IS9_EEED2Ev, symObjAddr: 0x181EC, symBinAddr: 0x10001C7BC, symSize: 0x58 }
  - { offsetInCU: 0x2F95F, offset: 0x2F95F, size: 0x8, addend: 0x0, symName: __ZNSt3__112__hash_tableINS_17__hash_value_typeINS_12basic_stringIcNS_11char_traitsIcEENS_9allocatorIcEEEE7LexTypeEENS_22__unordered_map_hasherIS7_S9_NS_4hashIS7_EENS_8equal_toIS7_EELb1EEENS_21__unordered_map_equalIS7_S9_SE_SC_Lb1EEENS5_IS9_EEE17__deallocate_nodeEPNS_16__hash_node_baseIPNS_11__hash_nodeIS9_PvEEEE, symObjAddr: 0x18244, symBinAddr: 0x10001C814, symSize: 0xA4 }
  - { offsetInCU: 0x2F9C9, offset: 0x2F9C9, size: 0x8, addend: 0x0, symName: __ZNSt3__110unique_ptrIA_PNS_16__hash_node_baseIPNS_11__hash_nodeINS_17__hash_value_typeINS_12basic_stringIcNS_11char_traitsIcEENS_9allocatorIcEEEE7LexTypeEEPvEEEENS_25__bucket_list_deallocatorINS7_ISG_EEEEED1B7v160006Ev, symObjAddr: 0x182F8, symBinAddr: 0x10001C8C8, symSize: 0x2C }
  - { offsetInCU: 0x2F9F3, offset: 0x2F9F3, size: 0x8, addend: 0x0, symName: __ZNSt3__110unique_ptrIA_PNS_16__hash_node_baseIPNS_11__hash_nodeINS_17__hash_value_typeINS_12basic_stringIcNS_11char_traitsIcEENS_9allocatorIcEEEE7LexTypeEEPvEEEENS_25__bucket_list_deallocatorINS7_ISG_EEEEED2B7v160006Ev, symObjAddr: 0x18324, symBinAddr: 0x10001C8F4, symSize: 0x30 }
  - { offsetInCU: 0x2FA1D, offset: 0x2FA1D, size: 0x8, addend: 0x0, symName: __ZNSt3__110unique_ptrIA_PNS_16__hash_node_baseIPNS_11__hash_nodeINS_17__hash_value_typeINS_12basic_stringIcNS_11char_traitsIcEENS_9allocatorIcEEEE7LexTypeEEPvEEEENS_25__bucket_list_deallocatorINS7_ISG_EEEEE5resetB7v160006EDn, symObjAddr: 0x18354, symBinAddr: 0x10001C924, symSize: 0x6C }
  - { offsetInCU: 0x2FA5D, offset: 0x2FA5D, size: 0x8, addend: 0x0, symName: __ZNSt3__113unordered_mapI7LexTypeNS_12basic_stringIcNS_11char_traitsIcEENS_9allocatorIcEEEENS_4hashIS1_EENS_8equal_toIS1_EENS5_INS_4pairIKS1_S7_EEEEEC2B7v160006Ev, symObjAddr: 0x183C0, symBinAddr: 0x10001C990, symSize: 0x3C }
  - { offsetInCU: 0x2FA87, offset: 0x2FA87, size: 0x8, addend: 0x0, symName: __ZNSt3__112__hash_tableINS_17__hash_value_typeI7LexTypeNS_12basic_stringIcNS_11char_traitsIcEENS_9allocatorIcEEEEEENS_22__unordered_map_hasherIS2_S9_NS_4hashIS2_EENS_8equal_toIS2_EELb1EEENS_21__unordered_map_equalIS2_S9_SE_SC_Lb1EEENS6_IS9_EEEC1Ev, symObjAddr: 0x183FC, symBinAddr: 0x10001C9CC, symSize: 0x2C }
  - { offsetInCU: 0x2FAB3, offset: 0x2FAB3, size: 0x8, addend: 0x0, symName: __ZNSt3__112__hash_tableINS_17__hash_value_typeI7LexTypeNS_12basic_stringIcNS_11char_traitsIcEENS_9allocatorIcEEEEEENS_22__unordered_map_hasherIS2_S9_NS_4hashIS2_EENS_8equal_toIS2_EELb1EEENS_21__unordered_map_equalIS2_S9_SE_SC_Lb1EEENS6_IS9_EEEC2Ev, symObjAddr: 0x18438, symBinAddr: 0x10001CA08, symSize: 0x7C }
  - { offsetInCU: 0x2FADF, offset: 0x2FADF, size: 0x8, addend: 0x0, symName: __ZNSt3__110unique_ptrIA_PNS_16__hash_node_baseIPNS_11__hash_nodeINS_17__hash_value_typeI7LexTypeNS_12basic_stringIcNS_11char_traitsIcEENS_9allocatorIcEEEEEEPvEEEENS_25__bucket_list_deallocatorINS8_ISG_EEEEEC1B7v160006ILb1EvEEv, symObjAddr: 0x184B4, symBinAddr: 0x10001CA84, symSize: 0x2C }
  - { offsetInCU: 0x2FB14, offset: 0x2FB14, size: 0x8, addend: 0x0, symName: __ZNSt3__117__compressed_pairINS_16__hash_node_baseIPNS_11__hash_nodeINS_17__hash_value_typeI7LexTypeNS_12basic_stringIcNS_11char_traitsIcEENS_9allocatorIcEEEEEEPvEEEENS8_ISD_EEEC1B7v160006ILb1EvEEv, symObjAddr: 0x184E0, symBinAddr: 0x10001CAB0, symSize: 0x2C }
  - { offsetInCU: 0x2FB49, offset: 0x2FB49, size: 0x8, addend: 0x0, symName: __ZNSt3__117__compressed_pairImNS_22__unordered_map_hasherI7LexTypeNS_17__hash_value_typeIS2_NS_12basic_stringIcNS_11char_traitsIcEENS_9allocatorIcEEEEEENS_4hashIS2_EENS_8equal_toIS2_EELb1EEEEC1B7v160006IiNS_18__default_init_tagEEEOT_OT0_, symObjAddr: 0x1850C, symBinAddr: 0x10001CADC, symSize: 0x3C }
  - { offsetInCU: 0x2FBA1, offset: 0x2FBA1, size: 0x8, addend: 0x0, symName: __ZNSt3__117__compressed_pairIfNS_21__unordered_map_equalI7LexTypeNS_17__hash_value_typeIS2_NS_12basic_stringIcNS_11char_traitsIcEENS_9allocatorIcEEEEEENS_8equal_toIS2_EENS_4hashIS2_EELb1EEEEC1B7v160006IfNS_18__default_init_tagEEEOT_OT0_, symObjAddr: 0x18548, symBinAddr: 0x10001CB18, symSize: 0x3C }
  - { offsetInCU: 0x2FBF9, offset: 0x2FBF9, size: 0x8, addend: 0x0, symName: __ZNSt3__110unique_ptrIA_PNS_16__hash_node_baseIPNS_11__hash_nodeINS_17__hash_value_typeI7LexTypeNS_12basic_stringIcNS_11char_traitsIcEENS_9allocatorIcEEEEEEPvEEEENS_25__bucket_list_deallocatorINS8_ISG_EEEEEC2B7v160006ILb1EvEEv, symObjAddr: 0x18584, symBinAddr: 0x10001CB54, symSize: 0x3C }
  - { offsetInCU: 0x2FC2E, offset: 0x2FC2E, size: 0x8, addend: 0x0, symName: __ZNSt3__117__compressed_pairIPPNS_16__hash_node_baseIPNS_11__hash_nodeINS_17__hash_value_typeI7LexTypeNS_12basic_stringIcNS_11char_traitsIcEENS_9allocatorIcEEEEEEPvEEEENS_25__bucket_list_deallocatorINS8_ISG_EEEEEC1B7v160006INS_16__value_init_tagESN_EEOT_OT0_, symObjAddr: 0x185C0, symBinAddr: 0x10001CB90, symSize: 0x3C }
  - { offsetInCU: 0x2FC86, offset: 0x2FC86, size: 0x8, addend: 0x0, symName: __ZNSt3__117__compressed_pairIPPNS_16__hash_node_baseIPNS_11__hash_nodeINS_17__hash_value_typeI7LexTypeNS_12basic_stringIcNS_11char_traitsIcEENS_9allocatorIcEEEEEEPvEEEENS_25__bucket_list_deallocatorINS8_ISG_EEEEEC2B7v160006INS_16__value_init_tagESN_EEOT_OT0_, symObjAddr: 0x185FC, symBinAddr: 0x10001CBCC, symSize: 0x40 }
  - { offsetInCU: 0x2FCDE, offset: 0x2FCDE, size: 0x8, addend: 0x0, symName: __ZNSt3__122__compressed_pair_elemIPPNS_16__hash_node_baseIPNS_11__hash_nodeINS_17__hash_value_typeI7LexTypeNS_12basic_stringIcNS_11char_traitsIcEENS_9allocatorIcEEEEEEPvEEEELi0ELb0EEC2B7v160006ENS_16__value_init_tagE, symObjAddr: 0x1863C, symBinAddr: 0x10001CC0C, symSize: 0x18 }
  - { offsetInCU: 0x2FD12, offset: 0x2FD12, size: 0x8, addend: 0x0, symName: __ZNSt3__122__compressed_pair_elemINS_25__bucket_list_deallocatorINS_9allocatorIPNS_16__hash_node_baseIPNS_11__hash_nodeINS_17__hash_value_typeI7LexTypeNS_12basic_stringIcNS_11char_traitsIcEENS2_IcEEEEEEPvEEEEEEEELi1ELb0EEC2B7v160006ENS_16__value_init_tagE, symObjAddr: 0x18654, symBinAddr: 0x10001CC24, symSize: 0x2C }
  - { offsetInCU: 0x2FD46, offset: 0x2FD46, size: 0x8, addend: 0x0, symName: __ZNSt3__125__bucket_list_deallocatorINS_9allocatorIPNS_16__hash_node_baseIPNS_11__hash_nodeINS_17__hash_value_typeI7LexTypeNS_12basic_stringIcNS_11char_traitsIcEENS1_IcEEEEEEPvEEEEEEEC1B7v160006Ev, symObjAddr: 0x18680, symBinAddr: 0x10001CC50, symSize: 0x2C }
  - { offsetInCU: 0x2FD70, offset: 0x2FD70, size: 0x8, addend: 0x0, symName: __ZNSt3__125__bucket_list_deallocatorINS_9allocatorIPNS_16__hash_node_baseIPNS_11__hash_nodeINS_17__hash_value_typeI7LexTypeNS_12basic_stringIcNS_11char_traitsIcEENS1_IcEEEEEEPvEEEEEEEC2B7v160006Ev, symObjAddr: 0x186AC, symBinAddr: 0x10001CC7C, symSize: 0x40 }
  - { offsetInCU: 0x2FD9A, offset: 0x2FD9A, size: 0x8, addend: 0x0, symName: __ZNSt3__117__compressed_pairImNS_9allocatorIPNS_16__hash_node_baseIPNS_11__hash_nodeINS_17__hash_value_typeI7LexTypeNS_12basic_stringIcNS_11char_traitsIcEENS1_IcEEEEEEPvEEEEEEEC1B7v160006IiNS_18__default_init_tagEEEOT_OT0_, symObjAddr: 0x186EC, symBinAddr: 0x10001CCBC, symSize: 0x3C }
  - { offsetInCU: 0x2FDF2, offset: 0x2FDF2, size: 0x8, addend: 0x0, symName: __ZNSt3__117__compressed_pairImNS_9allocatorIPNS_16__hash_node_baseIPNS_11__hash_nodeINS_17__hash_value_typeI7LexTypeNS_12basic_stringIcNS_11char_traitsIcEENS1_IcEEEEEEPvEEEEEEEC2B7v160006IiNS_18__default_init_tagEEEOT_OT0_, symObjAddr: 0x18728, symBinAddr: 0x10001CCF8, symSize: 0x40 }
  - { offsetInCU: 0x2FE4A, offset: 0x2FE4A, size: 0x8, addend: 0x0, symName: __ZNSt3__122__compressed_pair_elemINS_9allocatorIPNS_16__hash_node_baseIPNS_11__hash_nodeINS_17__hash_value_typeI7LexTypeNS_12basic_stringIcNS_11char_traitsIcEENS1_IcEEEEEEPvEEEEEELi1ELb1EEC2B7v160006ENS_18__default_init_tagE, symObjAddr: 0x18768, symBinAddr: 0x10001CD38, symSize: 0x2C }
  - { offsetInCU: 0x2FE7E, offset: 0x2FE7E, size: 0x8, addend: 0x0, symName: __ZNSt3__19allocatorIPNS_16__hash_node_baseIPNS_11__hash_nodeINS_17__hash_value_typeI7LexTypeNS_12basic_stringIcNS_11char_traitsIcEENS0_IcEEEEEEPvEEEEEC2B7v160006Ev, symObjAddr: 0x18794, symBinAddr: 0x10001CD64, symSize: 0x2C }
  - { offsetInCU: 0x2FEA8, offset: 0x2FEA8, size: 0x8, addend: 0x0, symName: __ZNSt3__116__non_trivial_ifILb1ENS_9allocatorIPNS_16__hash_node_baseIPNS_11__hash_nodeINS_17__hash_value_typeI7LexTypeNS_12basic_stringIcNS_11char_traitsIcEENS1_IcEEEEEEPvEEEEEEEC2B7v160006Ev, symObjAddr: 0x187C0, symBinAddr: 0x10001CD90, symSize: 0x14 }
  - { offsetInCU: 0x2FED2, offset: 0x2FED2, size: 0x8, addend: 0x0, symName: __ZNSt3__117__compressed_pairINS_16__hash_node_baseIPNS_11__hash_nodeINS_17__hash_value_typeI7LexTypeNS_12basic_stringIcNS_11char_traitsIcEENS_9allocatorIcEEEEEEPvEEEENS8_ISD_EEEC2B7v160006ILb1EvEEv, symObjAddr: 0x187D4, symBinAddr: 0x10001CDA4, symSize: 0x34 }
  - { offsetInCU: 0x2FF07, offset: 0x2FF07, size: 0x8, addend: 0x0, symName: __ZNSt3__122__compressed_pair_elemINS_16__hash_node_baseIPNS_11__hash_nodeINS_17__hash_value_typeI7LexTypeNS_12basic_stringIcNS_11char_traitsIcEENS_9allocatorIcEEEEEEPvEEEELi0ELb0EEC2B7v160006ENS_16__value_init_tagE, symObjAddr: 0x18808, symBinAddr: 0x10001CDD8, symSize: 0x2C }
  - { offsetInCU: 0x2FF3B, offset: 0x2FF3B, size: 0x8, addend: 0x0, symName: __ZNSt3__122__compressed_pair_elemINS_9allocatorINS_11__hash_nodeINS_17__hash_value_typeI7LexTypeNS_12basic_stringIcNS_11char_traitsIcEENS1_IcEEEEEEPvEEEELi1ELb1EEC2B7v160006ENS_16__value_init_tagE, symObjAddr: 0x18834, symBinAddr: 0x10001CE04, symSize: 0x2C }
  - { offsetInCU: 0x2FF6F, offset: 0x2FF6F, size: 0x8, addend: 0x0, symName: __ZNSt3__116__hash_node_baseIPNS_11__hash_nodeINS_17__hash_value_typeI7LexTypeNS_12basic_stringIcNS_11char_traitsIcEENS_9allocatorIcEEEEEEPvEEEC1B7v160006Ev, symObjAddr: 0x18860, symBinAddr: 0x10001CE30, symSize: 0x2C }
  - { offsetInCU: 0x2FF99, offset: 0x2FF99, size: 0x8, addend: 0x0, symName: __ZNSt3__116__hash_node_baseIPNS_11__hash_nodeINS_17__hash_value_typeI7LexTypeNS_12basic_stringIcNS_11char_traitsIcEENS_9allocatorIcEEEEEEPvEEEC2B7v160006Ev, symObjAddr: 0x1888C, symBinAddr: 0x10001CE5C, symSize: 0x18 }
  - { offsetInCU: 0x2FFC3, offset: 0x2FFC3, size: 0x8, addend: 0x0, symName: __ZNSt3__19allocatorINS_11__hash_nodeINS_17__hash_value_typeI7LexTypeNS_12basic_stringIcNS_11char_traitsIcEENS0_IcEEEEEEPvEEEC2B7v160006Ev, symObjAddr: 0x188A4, symBinAddr: 0x10001CE74, symSize: 0x2C }
  - { offsetInCU: 0x2FFED, offset: 0x2FFED, size: 0x8, addend: 0x0, symName: __ZNSt3__116__non_trivial_ifILb1ENS_9allocatorINS_11__hash_nodeINS_17__hash_value_typeI7LexTypeNS_12basic_stringIcNS_11char_traitsIcEENS1_IcEEEEEEPvEEEEEC2B7v160006Ev, symObjAddr: 0x188D0, symBinAddr: 0x10001CEA0, symSize: 0x14 }
  - { offsetInCU: 0x30017, offset: 0x30017, size: 0x8, addend: 0x0, symName: __ZNSt3__117__compressed_pairImNS_22__unordered_map_hasherI7LexTypeNS_17__hash_value_typeIS2_NS_12basic_stringIcNS_11char_traitsIcEENS_9allocatorIcEEEEEENS_4hashIS2_EENS_8equal_toIS2_EELb1EEEEC2B7v160006IiNS_18__default_init_tagEEEOT_OT0_, symObjAddr: 0x188E4, symBinAddr: 0x10001CEB4, symSize: 0x40 }
  - { offsetInCU: 0x3006F, offset: 0x3006F, size: 0x8, addend: 0x0, symName: __ZNSt3__122__compressed_pair_elemINS_22__unordered_map_hasherI7LexTypeNS_17__hash_value_typeIS2_NS_12basic_stringIcNS_11char_traitsIcEENS_9allocatorIcEEEEEENS_4hashIS2_EENS_8equal_toIS2_EELb1EEELi1ELb1EEC2B7v160006ENS_18__default_init_tagE, symObjAddr: 0x18924, symBinAddr: 0x10001CEF4, symSize: 0x2C }
  - { offsetInCU: 0x300A3, offset: 0x300A3, size: 0x8, addend: 0x0, symName: __ZNSt3__122__unordered_map_hasherI7LexTypeNS_17__hash_value_typeIS1_NS_12basic_stringIcNS_11char_traitsIcEENS_9allocatorIcEEEEEENS_4hashIS1_EENS_8equal_toIS1_EELb1EEC2B7v160006Ev, symObjAddr: 0x18950, symBinAddr: 0x10001CF20, symSize: 0x14 }
  - { offsetInCU: 0x300CD, offset: 0x300CD, size: 0x8, addend: 0x0, symName: __ZNSt3__117__compressed_pairIfNS_21__unordered_map_equalI7LexTypeNS_17__hash_value_typeIS2_NS_12basic_stringIcNS_11char_traitsIcEENS_9allocatorIcEEEEEENS_8equal_toIS2_EENS_4hashIS2_EELb1EEEEC2B7v160006IfNS_18__default_init_tagEEEOT_OT0_, symObjAddr: 0x18964, symBinAddr: 0x10001CF34, symSize: 0x40 }
  - { offsetInCU: 0x30125, offset: 0x30125, size: 0x8, addend: 0x0, symName: __ZNSt3__122__compressed_pair_elemINS_21__unordered_map_equalI7LexTypeNS_17__hash_value_typeIS2_NS_12basic_stringIcNS_11char_traitsIcEENS_9allocatorIcEEEEEENS_8equal_toIS2_EENS_4hashIS2_EELb1EEELi1ELb1EEC2B7v160006ENS_18__default_init_tagE, symObjAddr: 0x189A4, symBinAddr: 0x10001CF74, symSize: 0x2C }
  - { offsetInCU: 0x30159, offset: 0x30159, size: 0x8, addend: 0x0, symName: __ZNSt3__121__unordered_map_equalI7LexTypeNS_17__hash_value_typeIS1_NS_12basic_stringIcNS_11char_traitsIcEENS_9allocatorIcEEEEEENS_8equal_toIS1_EENS_4hashIS1_EELb1EEC2B7v160006Ev, symObjAddr: 0x189D0, symBinAddr: 0x10001CFA0, symSize: 0x14 }
  - { offsetInCU: 0x30183, offset: 0x30183, size: 0x8, addend: 0x0, symName: __ZNSt3__113unordered_mapI7LexTypeNS_12basic_stringIcNS_11char_traitsIcEENS_9allocatorIcEEEENS_4hashIS1_EENS_8equal_toIS1_EENS5_INS_4pairIKS1_S7_EEEEED2B7v160006Ev, symObjAddr: 0x189E4, symBinAddr: 0x10001CFB4, symSize: 0x2C }
  - { offsetInCU: 0x301AD, offset: 0x301AD, size: 0x8, addend: 0x0, symName: __ZNSt3__112__hash_tableINS_17__hash_value_typeI7LexTypeNS_12basic_stringIcNS_11char_traitsIcEENS_9allocatorIcEEEEEENS_22__unordered_map_hasherIS2_S9_NS_4hashIS2_EENS_8equal_toIS2_EELb1EEENS_21__unordered_map_equalIS2_S9_SE_SC_Lb1EEENS6_IS9_EEED1Ev, symObjAddr: 0x18A10, symBinAddr: 0x10001CFE0, symSize: 0x2C }
  - { offsetInCU: 0x301D9, offset: 0x301D9, size: 0x8, addend: 0x0, symName: __ZNSt3__112__hash_tableINS_17__hash_value_typeI7LexTypeNS_12basic_stringIcNS_11char_traitsIcEENS_9allocatorIcEEEEEENS_22__unordered_map_hasherIS2_S9_NS_4hashIS2_EENS_8equal_toIS2_EELb1EEENS_21__unordered_map_equalIS2_S9_SE_SC_Lb1EEENS6_IS9_EEED2Ev, symObjAddr: 0x18A3C, symBinAddr: 0x10001D00C, symSize: 0x58 }
  - { offsetInCU: 0x30205, offset: 0x30205, size: 0x8, addend: 0x0, symName: __ZNSt3__112__hash_tableINS_17__hash_value_typeI7LexTypeNS_12basic_stringIcNS_11char_traitsIcEENS_9allocatorIcEEEEEENS_22__unordered_map_hasherIS2_S9_NS_4hashIS2_EENS_8equal_toIS2_EELb1EEENS_21__unordered_map_equalIS2_S9_SE_SC_Lb1EEENS6_IS9_EEE17__deallocate_nodeEPNS_16__hash_node_baseIPNS_11__hash_nodeIS9_PvEEEE, symObjAddr: 0x18A94, symBinAddr: 0x10001D064, symSize: 0xA4 }
  - { offsetInCU: 0x3026F, offset: 0x3026F, size: 0x8, addend: 0x0, symName: __ZNSt3__110unique_ptrIA_PNS_16__hash_node_baseIPNS_11__hash_nodeINS_17__hash_value_typeI7LexTypeNS_12basic_stringIcNS_11char_traitsIcEENS_9allocatorIcEEEEEEPvEEEENS_25__bucket_list_deallocatorINS8_ISG_EEEEED1B7v160006Ev, symObjAddr: 0x18B48, symBinAddr: 0x10001D118, symSize: 0x2C }
  - { offsetInCU: 0x30299, offset: 0x30299, size: 0x8, addend: 0x0, symName: __ZNSt3__110unique_ptrIA_PNS_16__hash_node_baseIPNS_11__hash_nodeINS_17__hash_value_typeI7LexTypeNS_12basic_stringIcNS_11char_traitsIcEENS_9allocatorIcEEEEEEPvEEEENS_25__bucket_list_deallocatorINS8_ISG_EEEEED2B7v160006Ev, symObjAddr: 0x18B74, symBinAddr: 0x10001D144, symSize: 0x30 }
  - { offsetInCU: 0x302C3, offset: 0x302C3, size: 0x8, addend: 0x0, symName: __ZNSt3__110unique_ptrIA_PNS_16__hash_node_baseIPNS_11__hash_nodeINS_17__hash_value_typeI7LexTypeNS_12basic_stringIcNS_11char_traitsIcEENS_9allocatorIcEEEEEEPvEEEENS_25__bucket_list_deallocatorINS8_ISG_EEEEE5resetB7v160006EDn, symObjAddr: 0x18BA4, symBinAddr: 0x10001D174, symSize: 0x6C }
  - { offsetInCU: 0x30303, offset: 0x30303, size: 0x8, addend: 0x0, symName: __ZNSt3__16vectorI7MyTokenNS_9allocatorIS1_EEEC2B7v160006Ev, symObjAddr: 0x18C10, symBinAddr: 0x10001D1E0, symSize: 0x58 }
  - { offsetInCU: 0x3032D, offset: 0x3032D, size: 0x8, addend: 0x0, symName: __ZNSt3__117__compressed_pairIP7MyTokenNS_9allocatorIS1_EEEC1B7v160006IDnNS_18__default_init_tagEEEOT_OT0_, symObjAddr: 0x18C68, symBinAddr: 0x10001D238, symSize: 0x3C }
  - { offsetInCU: 0x30385, offset: 0x30385, size: 0x8, addend: 0x0, symName: __ZNSt3__117__compressed_pairIP7MyTokenNS_9allocatorIS1_EEEC2B7v160006IDnNS_18__default_init_tagEEEOT_OT0_, symObjAddr: 0x18CB4, symBinAddr: 0x10001D284, symSize: 0x40 }
  - { offsetInCU: 0x303DD, offset: 0x303DD, size: 0x8, addend: 0x0, symName: __ZNSt3__122__compressed_pair_elemIP7MyTokenLi0ELb0EEC2B7v160006IDnvEEOT_, symObjAddr: 0x18CF4, symBinAddr: 0x10001D2C4, symSize: 0x1C }
  - { offsetInCU: 0x3041F, offset: 0x3041F, size: 0x8, addend: 0x0, symName: __ZNSt3__122__compressed_pair_elemINS_9allocatorI7MyTokenEELi1ELb1EEC2B7v160006ENS_18__default_init_tagE, symObjAddr: 0x18D10, symBinAddr: 0x10001D2E0, symSize: 0x2C }
  - { offsetInCU: 0x30453, offset: 0x30453, size: 0x8, addend: 0x0, symName: __ZNSt3__19allocatorI7MyTokenEC2B7v160006Ev, symObjAddr: 0x18D3C, symBinAddr: 0x10001D30C, symSize: 0x2C }
  - { offsetInCU: 0x3047D, offset: 0x3047D, size: 0x8, addend: 0x0, symName: __ZNSt3__116__non_trivial_ifILb1ENS_9allocatorI7MyTokenEEEC2B7v160006Ev, symObjAddr: 0x18D68, symBinAddr: 0x10001D338, symSize: 0x14 }
  - { offsetInCU: 0x304A7, offset: 0x304A7, size: 0x8, addend: 0x0, symName: __ZNSt3__16vectorI7MyTokenNS_9allocatorIS1_EEED2B7v160006Ev, symObjAddr: 0x18D7C, symBinAddr: 0x10001D34C, symSize: 0x44 }
  - { offsetInCU: 0x304D1, offset: 0x304D1, size: 0x8, addend: 0x0, symName: __ZNSt3__16vectorI7MyTokenNS_9allocatorIS1_EEE16__destroy_vectorC1ERS4_, symObjAddr: 0x18DC0, symBinAddr: 0x10001D390, symSize: 0x34 }
  - { offsetInCU: 0x3050A, offset: 0x3050A, size: 0x8, addend: 0x0, symName: __ZNSt3__16vectorI7MyTokenNS_9allocatorIS1_EEE16__destroy_vectorclB7v160006Ev, symObjAddr: 0x18DF4, symBinAddr: 0x10001D3C4, symSize: 0x9C }
  - { offsetInCU: 0x30530, offset: 0x30530, size: 0x8, addend: 0x0, symName: __ZNSt3__16vectorI7MyTokenNS_9allocatorIS1_EEE16__destroy_vectorC2ERS4_, symObjAddr: 0x18E90, symBinAddr: 0x10001D460, symSize: 0x20 }
  - { offsetInCU: 0x30569, offset: 0x30569, size: 0x8, addend: 0x0, symName: __ZNKSt3__16vectorI7MyTokenNS_9allocatorIS1_EEE17__annotate_deleteB7v160006Ev, symObjAddr: 0x18EB0, symBinAddr: 0x10001D480, symSize: 0xB8 }
  - { offsetInCU: 0x3058F, offset: 0x3058F, size: 0x8, addend: 0x0, symName: __ZNSt3__16vectorI7MyTokenNS_9allocatorIS1_EEE7__clearB7v160006Ev, symObjAddr: 0x18F78, symBinAddr: 0x10001D548, symSize: 0x28 }
  - { offsetInCU: 0x305B5, offset: 0x305B5, size: 0x8, addend: 0x0, symName: __ZNSt3__116allocator_traitsINS_9allocatorI7MyTokenEEE10deallocateB7v160006ERS3_PS2_m, symObjAddr: 0x18FA0, symBinAddr: 0x10001D570, symSize: 0x34 }
  - { offsetInCU: 0x305F7, offset: 0x305F7, size: 0x8, addend: 0x0, symName: __ZNSt3__16vectorI7MyTokenNS_9allocatorIS1_EEE7__allocB7v160006Ev, symObjAddr: 0x18FD4, symBinAddr: 0x10001D5A4, symSize: 0x28 }
  - { offsetInCU: 0x3061D, offset: 0x3061D, size: 0x8, addend: 0x0, symName: __ZNKSt3__16vectorI7MyTokenNS_9allocatorIS1_EEE8capacityB7v160006Ev, symObjAddr: 0x18FFC, symBinAddr: 0x10001D5CC, symSize: 0x40 }
  - { offsetInCU: 0x30643, offset: 0x30643, size: 0x8, addend: 0x0, symName: __ZNKSt3__16vectorI7MyTokenNS_9allocatorIS1_EEE31__annotate_contiguous_containerB7v160006EPKvS6_S6_S6_, symObjAddr: 0x1903C, symBinAddr: 0x10001D60C, symSize: 0x20 }
  - { offsetInCU: 0x30695, offset: 0x30695, size: 0x8, addend: 0x0, symName: __ZNKSt3__16vectorI7MyTokenNS_9allocatorIS1_EEE4dataB7v160006Ev, symObjAddr: 0x1905C, symBinAddr: 0x10001D62C, symSize: 0x28 }
  - { offsetInCU: 0x306BB, offset: 0x306BB, size: 0x8, addend: 0x0, symName: __ZNSt3__16vectorI7MyTokenNS_9allocatorIS1_EEE22__base_destruct_at_endB7v160006EPS1_, symObjAddr: 0x19098, symBinAddr: 0x10001D668, symSize: 0x8C }
  - { offsetInCU: 0x306FF, offset: 0x306FF, size: 0x8, addend: 0x0, symName: __ZNSt3__116allocator_traitsINS_9allocatorI7MyTokenEEE7destroyB7v160006IS2_vEEvRS3_PT_, symObjAddr: 0x19124, symBinAddr: 0x10001D6F4, symSize: 0x2C }
  - { offsetInCU: 0x3073C, offset: 0x3073C, size: 0x8, addend: 0x0, symName: __ZNSt3__19allocatorI7MyTokenE7destroyB7v160006EPS1_, symObjAddr: 0x19150, symBinAddr: 0x10001D720, symSize: 0x28 }
  - { offsetInCU: 0x30770, offset: 0x30770, size: 0x8, addend: 0x0, symName: __ZNSt3__19allocatorI7MyTokenE10deallocateB7v160006EPS1_m, symObjAddr: 0x19178, symBinAddr: 0x10001D748, symSize: 0x40 }
  - { offsetInCU: 0x307B2, offset: 0x307B2, size: 0x8, addend: 0x0, symName: __ZNSt3__117__compressed_pairIP7MyTokenNS_9allocatorIS1_EEE6secondB7v160006Ev, symObjAddr: 0x191B8, symBinAddr: 0x10001D788, symSize: 0x24 }
  - { offsetInCU: 0x307D8, offset: 0x307D8, size: 0x8, addend: 0x0, symName: __ZNSt3__122__compressed_pair_elemINS_9allocatorI7MyTokenEELi1ELb1EE5__getB7v160006Ev, symObjAddr: 0x191DC, symBinAddr: 0x10001D7AC, symSize: 0x14 }
  - { offsetInCU: 0x307FE, offset: 0x307FE, size: 0x8, addend: 0x0, symName: __ZNKSt3__16vectorI7MyTokenNS_9allocatorIS1_EEE9__end_capB7v160006Ev, symObjAddr: 0x191F0, symBinAddr: 0x10001D7C0, symSize: 0x28 }
  - { offsetInCU: 0x30824, offset: 0x30824, size: 0x8, addend: 0x0, symName: __ZNKSt3__117__compressed_pairIP7MyTokenNS_9allocatorIS1_EEE5firstB7v160006Ev, symObjAddr: 0x19218, symBinAddr: 0x10001D7E8, symSize: 0x24 }
  - { offsetInCU: 0x3084A, offset: 0x3084A, size: 0x8, addend: 0x0, symName: __ZNKSt3__122__compressed_pair_elemIP7MyTokenLi0ELb0EE5__getB7v160006Ev, symObjAddr: 0x1923C, symBinAddr: 0x10001D80C, symSize: 0x14 }
  - { offsetInCU: 0x30870, offset: 0x30870, size: 0x8, addend: 0x0, symName: __ZNSt3__112__hash_tableINS_17__hash_value_typeINS_12basic_stringIcNS_11char_traitsIcEENS_9allocatorIcEEEE7LexTypeEENS_22__unordered_map_hasherIS7_S9_NS_4hashIS7_EENS_8equal_toIS7_EELb1EEENS_21__unordered_map_equalIS7_S9_SE_SC_Lb1EEENS5_IS9_EEE4findIS7_EENS_15__hash_iteratorIPNS_11__hash_nodeIS9_PvEEEERKT_, symObjAddr: 0x19250, symBinAddr: 0x10001D820, symSize: 0x1B4 }
  - { offsetInCU: 0x308FA, offset: 0x308FA, size: 0x8, addend: 0x0, symName: __ZNSt3__112__hash_tableINS_17__hash_value_typeINS_12basic_stringIcNS_11char_traitsIcEENS_9allocatorIcEEEE7LexTypeEENS_22__unordered_map_hasherIS7_S9_NS_4hashIS7_EENS_8equal_toIS7_EELb1EEENS_21__unordered_map_equalIS7_S9_SE_SC_Lb1EEENS5_IS9_EEE3endEv, symObjAddr: 0x19404, symBinAddr: 0x10001D9D4, symSize: 0x30 }
  - { offsetInCU: 0x30922, offset: 0x30922, size: 0x8, addend: 0x0, symName: __ZNSt3__114pointer_traitsIPNS_4pairIKNS_12basic_stringIcNS_11char_traitsIcEENS_9allocatorIcEEEE7LexTypeEEE10pointer_toB7v160006ERSA_, symObjAddr: 0x19498, symBinAddr: 0x10001DA68, symSize: 0x14 }
  - { offsetInCU: 0x30945, offset: 0x30945, size: 0x8, addend: 0x0, symName: __ZNKSt3__115__hash_iteratorIPNS_11__hash_nodeINS_17__hash_value_typeINS_12basic_stringIcNS_11char_traitsIcEENS_9allocatorIcEEEE7LexTypeEEPvEEEptB7v160006Ev, symObjAddr: 0x194AC, symBinAddr: 0x10001DA7C, symSize: 0x30 }
  - { offsetInCU: 0x3096B, offset: 0x3096B, size: 0x8, addend: 0x0, symName: __ZNSt3__114pointer_traitsIPNS_17__hash_value_typeINS_12basic_stringIcNS_11char_traitsIcEENS_9allocatorIcEEEE7LexTypeEEE10pointer_toB7v160006ERS9_, symObjAddr: 0x194DC, symBinAddr: 0x10001DAAC, symSize: 0x14 }
  - { offsetInCU: 0x3098E, offset: 0x3098E, size: 0x8, addend: 0x0, symName: __ZNSt3__112__hash_tableINS_17__hash_value_typeI7LexTypeNS_12basic_stringIcNS_11char_traitsIcEENS_9allocatorIcEEEEEENS_22__unordered_map_hasherIS2_S9_NS_4hashIS2_EENS_8equal_toIS2_EELb1EEENS_21__unordered_map_equalIS2_S9_SE_SC_Lb1EEENS6_IS9_EEE4findIS2_EENS_15__hash_iteratorIPNS_11__hash_nodeIS9_PvEEEERKT_, symObjAddr: 0x194F0, symBinAddr: 0x10001DAC0, symSize: 0x1B4 }
  - { offsetInCU: 0x30A18, offset: 0x30A18, size: 0x8, addend: 0x0, symName: __ZNSt3__112__hash_tableINS_17__hash_value_typeI7LexTypeNS_12basic_stringIcNS_11char_traitsIcEENS_9allocatorIcEEEEEENS_22__unordered_map_hasherIS2_S9_NS_4hashIS2_EENS_8equal_toIS2_EELb1EEENS_21__unordered_map_equalIS2_S9_SE_SC_Lb1EEENS6_IS9_EEE3endEv, symObjAddr: 0x196A4, symBinAddr: 0x10001DC74, symSize: 0x30 }
  - { offsetInCU: 0x30A40, offset: 0x30A40, size: 0x8, addend: 0x0, symName: __ZNSt3__114pointer_traitsIPNS_4pairIK7LexTypeNS_12basic_stringIcNS_11char_traitsIcEENS_9allocatorIcEEEEEEE10pointer_toB7v160006ERSA_, symObjAddr: 0x196D4, symBinAddr: 0x10001DCA4, symSize: 0x14 }
  - { offsetInCU: 0x30A63, offset: 0x30A63, size: 0x8, addend: 0x0, symName: __ZNKSt3__115__hash_iteratorIPNS_11__hash_nodeINS_17__hash_value_typeI7LexTypeNS_12basic_stringIcNS_11char_traitsIcEENS_9allocatorIcEEEEEEPvEEEptB7v160006Ev, symObjAddr: 0x196E8, symBinAddr: 0x10001DCB8, symSize: 0x30 }
  - { offsetInCU: 0x30A89, offset: 0x30A89, size: 0x8, addend: 0x0, symName: __ZNSt3__114pointer_traitsIPNS_17__hash_value_typeI7LexTypeNS_12basic_stringIcNS_11char_traitsIcEENS_9allocatorIcEEEEEEE10pointer_toB7v160006ERS9_, symObjAddr: 0x19718, symBinAddr: 0x10001DCE8, symSize: 0x14 }
  - { offsetInCU: 0x30AAC, offset: 0x30AAC, size: 0x8, addend: 0x0, symName: __ZNSt3__112basic_stringIcNS_11char_traitsIcEENS_9allocatorIcEEEC2B7v160006IDnEEPKc, symObjAddr: 0x1972C, symBinAddr: 0x10001DCFC, symSize: 0x60 }
  - { offsetInCU: 0x30AEA, offset: 0x30AEA, size: 0x8, addend: 0x0, symName: __ZNSt3__111char_traitsIcE6lengthEPKc, symObjAddr: 0x1978C, symBinAddr: 0x10001DD5C, symSize: 0x34 }
  - { offsetInCU: 0x30B2E, offset: 0x30B2E, size: 0x8, addend: 0x0, symName: __ZNKSt3__113basic_ostreamIcNS_11char_traitsIcEEE6sentrycvbB7v160006Ev, symObjAddr: 0x199D0, symBinAddr: 0x10001DFA0, symSize: 0x1C }
  - { offsetInCU: 0x30B54, offset: 0x30B54, size: 0x8, addend: 0x0, symName: __ZNSt3__119ostreambuf_iteratorIcNS_11char_traitsIcEEEC1B7v160006ERNS_13basic_ostreamIcS2_EE, symObjAddr: 0x19C2C, symBinAddr: 0x10001E1FC, symSize: 0x34 }
  - { offsetInCU: 0x30B8C, offset: 0x30B8C, size: 0x8, addend: 0x0, symName: __ZNKSt3__18ios_base5flagsB7v160006Ev, symObjAddr: 0x19C60, symBinAddr: 0x10001E230, symSize: 0x18 }
  - { offsetInCU: 0x30BB4, offset: 0x30BB4, size: 0x8, addend: 0x0, symName: __ZNKSt3__19basic_iosIcNS_11char_traitsIcEEE4fillB7v160006Ev, symObjAddr: 0x19C78, symBinAddr: 0x10001E248, symSize: 0x64 }
  - { offsetInCU: 0x30BDC, offset: 0x30BDC, size: 0x8, addend: 0x0, symName: __ZNKSt3__119ostreambuf_iteratorIcNS_11char_traitsIcEEE6failedB7v160006Ev, symObjAddr: 0x19CDC, symBinAddr: 0x10001E2AC, symSize: 0x24 }
  - { offsetInCU: 0x30C02, offset: 0x30C02, size: 0x8, addend: 0x0, symName: __ZNSt3__19basic_iosIcNS_11char_traitsIcEEE8setstateB7v160006Ej, symObjAddr: 0x19D00, symBinAddr: 0x10001E2D0, symSize: 0x2C }
  - { offsetInCU: 0x30C37, offset: 0x30C37, size: 0x8, addend: 0x0, symName: __ZNKSt3__18ios_base5widthB7v160006Ev, symObjAddr: 0x19D2C, symBinAddr: 0x10001E2FC, symSize: 0x18 }
  - { offsetInCU: 0x30C5F, offset: 0x30C5F, size: 0x8, addend: 0x0, symName: __ZNSt3__115basic_streambufIcNS_11char_traitsIcEEE5sputnB7v160006EPKcl, symObjAddr: 0x19D44, symBinAddr: 0x10001E314, symSize: 0x3C }
  - { offsetInCU: 0x30CA1, offset: 0x30CA1, size: 0x8, addend: 0x0, symName: __ZNSt3__112basic_stringIcNS_11char_traitsIcEENS_9allocatorIcEEEC1B7v160006Emc, symObjAddr: 0x19D80, symBinAddr: 0x10001E350, symSize: 0x3C }
  - { offsetInCU: 0x30CE9, offset: 0x30CE9, size: 0x8, addend: 0x0, symName: __ZNSt3__112basic_stringIcNS_11char_traitsIcEENS_9allocatorIcEEE4dataB7v160006Ev, symObjAddr: 0x19DBC, symBinAddr: 0x10001E38C, symSize: 0x28 }
  - { offsetInCU: 0x30D0F, offset: 0x30D0F, size: 0x8, addend: 0x0, symName: __ZNSt3__18ios_base5widthB7v160006El, symObjAddr: 0x19DE4, symBinAddr: 0x10001E3B4, symSize: 0x2C }
  - { offsetInCU: 0x30D55, offset: 0x30D55, size: 0x8, addend: 0x0, symName: __ZNSt3__112basic_stringIcNS_11char_traitsIcEENS_9allocatorIcEEEC2B7v160006Emc, symObjAddr: 0x19E10, symBinAddr: 0x10001E3E0, symSize: 0x54 }
  - { offsetInCU: 0x30D9D, offset: 0x30D9D, size: 0x8, addend: 0x0, symName: __ZNSt3__112basic_stringIcNS_11char_traitsIcEENS_9allocatorIcEEE13__get_pointerB7v160006Ev, symObjAddr: 0x19E78, symBinAddr: 0x10001E448, symSize: 0x54 }
  - { offsetInCU: 0x30DC3, offset: 0x30DC3, size: 0x8, addend: 0x0, symName: __ZNSt3__112basic_stringIcNS_11char_traitsIcEENS_9allocatorIcEEE18__get_long_pointerB7v160006Ev, symObjAddr: 0x19ECC, symBinAddr: 0x10001E49C, symSize: 0x28 }
  - { offsetInCU: 0x30DE9, offset: 0x30DE9, size: 0x8, addend: 0x0, symName: __ZNSt3__112basic_stringIcNS_11char_traitsIcEENS_9allocatorIcEEE19__get_short_pointerB7v160006Ev, symObjAddr: 0x19EF4, symBinAddr: 0x10001E4C4, symSize: 0x28 }
  - { offsetInCU: 0x30E0F, offset: 0x30E0F, size: 0x8, addend: 0x0, symName: __ZNSt3__114pointer_traitsIPcE10pointer_toB7v160006ERc, symObjAddr: 0x19F1C, symBinAddr: 0x10001E4EC, symSize: 0x14 }
  - { offsetInCU: 0x30E32, offset: 0x30E32, size: 0x8, addend: 0x0, symName: __ZNSt3__119ostreambuf_iteratorIcNS_11char_traitsIcEEEC2B7v160006ERNS_13basic_ostreamIcS2_EE, symObjAddr: 0x19F30, symBinAddr: 0x10001E500, symSize: 0x54 }
  - { offsetInCU: 0x30E6A, offset: 0x30E6A, size: 0x8, addend: 0x0, symName: __ZNKSt3__19basic_iosIcNS_11char_traitsIcEEE5rdbufB7v160006Ev, symObjAddr: 0x19F84, symBinAddr: 0x10001E554, symSize: 0x24 }
  - { offsetInCU: 0x30E92, offset: 0x30E92, size: 0x8, addend: 0x0, symName: __ZNKSt3__18ios_base5rdbufB7v160006Ev, symObjAddr: 0x19FA8, symBinAddr: 0x10001E578, symSize: 0x18 }
  - { offsetInCU: 0x30EB8, offset: 0x30EB8, size: 0x8, addend: 0x0, symName: __ZNSt3__111char_traitsIcE11eq_int_typeEii, symObjAddr: 0x19FC0, symBinAddr: 0x10001E590, symSize: 0x28 }
  - { offsetInCU: 0x30EE9, offset: 0x30EE9, size: 0x8, addend: 0x0, symName: __ZNKSt3__19basic_iosIcNS_11char_traitsIcEEE5widenB7v160006Ec, symObjAddr: 0x19FE8, symBinAddr: 0x10001E5B8, symSize: 0x84 }
  - { offsetInCU: 0x30F62, offset: 0x30F62, size: 0x8, addend: 0x0, symName: __ZNKSt3__15ctypeIcE5widenB7v160006Ec, symObjAddr: 0x1A098, symBinAddr: 0x10001E668, symSize: 0x38 }
  - { offsetInCU: 0x30F97, offset: 0x30F97, size: 0x8, addend: 0x0, symName: __ZNSt3__18ios_base8setstateB7v160006Ej, symObjAddr: 0x1A0D0, symBinAddr: 0x10001E6A0, symSize: 0x34 }
  - { offsetInCU: 0x30FCE, offset: 0x30FCE, size: 0x8, addend: 0x0, symName: __ZNSt3__16vectorI7MyTokenNS_9allocatorIS1_EEE9__end_capB7v160006Ev, symObjAddr: 0x1A104, symBinAddr: 0x10001E6D4, symSize: 0x28 }
  - { offsetInCU: 0x30FF4, offset: 0x30FF4, size: 0x8, addend: 0x0, symName: __ZNSt3__16vectorI7MyTokenNS_9allocatorIS1_EEE22__construct_one_at_endB7v160006IJRKS1_EEEvDpOT_, symObjAddr: 0x1A12C, symBinAddr: 0x10001E6FC, symSize: 0x90 }
  - { offsetInCU: 0x31043, offset: 0x31043, size: 0x8, addend: 0x0, symName: __ZNSt3__16vectorI7MyTokenNS_9allocatorIS1_EEE21__push_back_slow_pathIRKS1_EEvOT_, symObjAddr: 0x1A1BC, symBinAddr: 0x10001E78C, symSize: 0xD8 }
  - { offsetInCU: 0x310A1, offset: 0x310A1, size: 0x8, addend: 0x0, symName: __ZNSt3__117__compressed_pairIP7MyTokenNS_9allocatorIS1_EEE5firstB7v160006Ev, symObjAddr: 0x1A294, symBinAddr: 0x10001E864, symSize: 0x24 }
  - { offsetInCU: 0x310C7, offset: 0x310C7, size: 0x8, addend: 0x0, symName: __ZNSt3__122__compressed_pair_elemIP7MyTokenLi0ELb0EE5__getB7v160006Ev, symObjAddr: 0x1A2B8, symBinAddr: 0x10001E888, symSize: 0x14 }
  - { offsetInCU: 0x31109, offset: 0x31109, size: 0x8, addend: 0x0, symName: __ZNSt3__16vectorI7MyTokenNS_9allocatorIS1_EEE21_ConstructTransactionC1B7v160006ERS4_m, symObjAddr: 0x1A2CC, symBinAddr: 0x10001E89C, symSize: 0x3C }
  - { offsetInCU: 0x31151, offset: 0x31151, size: 0x8, addend: 0x0, symName: __ZNSt3__116allocator_traitsINS_9allocatorI7MyTokenEEE9constructB7v160006IS2_JRKS2_EvEEvRS3_PT_DpOT0_, symObjAddr: 0x1A308, symBinAddr: 0x10001E8D8, symSize: 0x34 }
  - { offsetInCU: 0x311A8, offset: 0x311A8, size: 0x8, addend: 0x0, symName: __ZNSt3__16vectorI7MyTokenNS_9allocatorIS1_EEE21_ConstructTransactionD1B7v160006Ev, symObjAddr: 0x1A33C, symBinAddr: 0x10001E90C, symSize: 0x2C }
  - { offsetInCU: 0x311D2, offset: 0x311D2, size: 0x8, addend: 0x0, symName: __ZNSt3__16vectorI7MyTokenNS_9allocatorIS1_EEE21_ConstructTransactionC2B7v160006ERS4_m, symObjAddr: 0x1A368, symBinAddr: 0x10001E938, symSize: 0x44 }
  - { offsetInCU: 0x3121A, offset: 0x3121A, size: 0x8, addend: 0x0, symName: __ZNSt3__19allocatorI7MyTokenE9constructB7v160006IS1_JRKS1_EEEvPT_DpOT0_, symObjAddr: 0x1A3AC, symBinAddr: 0x10001E97C, symSize: 0x30 }
  - { offsetInCU: 0x31270, offset: 0x31270, size: 0x8, addend: 0x0, symName: __ZNSt3__16vectorI7MyTokenNS_9allocatorIS1_EEE21_ConstructTransactionD2B7v160006Ev, symObjAddr: 0x1A3DC, symBinAddr: 0x10001E9AC, symSize: 0x20 }
  - { offsetInCU: 0x3129A, offset: 0x3129A, size: 0x8, addend: 0x0, symName: __ZNKSt3__16vectorI7MyTokenNS_9allocatorIS1_EEE11__recommendB7v160006Em, symObjAddr: 0x1A3FC, symBinAddr: 0x10001E9CC, symSize: 0xB4 }
  - { offsetInCU: 0x312EF, offset: 0x312EF, size: 0x8, addend: 0x0, symName: __ZNSt3__114__split_bufferI7MyTokenRNS_9allocatorIS1_EEEC1EmmS4_, symObjAddr: 0x1A4B0, symBinAddr: 0x10001EA80, symSize: 0x44 }
  - { offsetInCU: 0x31345, offset: 0x31345, size: 0x8, addend: 0x0, symName: __ZNSt3__114__split_bufferI7MyTokenRNS_9allocatorIS1_EEED1Ev, symObjAddr: 0x1A60C, symBinAddr: 0x10001EBDC, symSize: 0x2C }
  - { offsetInCU: 0x31371, offset: 0x31371, size: 0x8, addend: 0x0, symName: __ZNKSt3__16vectorI7MyTokenNS_9allocatorIS1_EEE8max_sizeEv, symObjAddr: 0x1A638, symBinAddr: 0x10001EC08, symSize: 0x60 }
  - { offsetInCU: 0x31399, offset: 0x31399, size: 0x8, addend: 0x0, symName: __ZNKSt3__16vectorI7MyTokenNS_9allocatorIS1_EEE20__throw_length_errorB7v160006Ev, symObjAddr: 0x1A698, symBinAddr: 0x10001EC68, symSize: 0x1C }
  - { offsetInCU: 0x313CA, offset: 0x313CA, size: 0x8, addend: 0x0, symName: __ZNSt3__116allocator_traitsINS_9allocatorI7MyTokenEEE8max_sizeB7v160006IS3_vEEmRKS3_, symObjAddr: 0x1A6B4, symBinAddr: 0x10001EC84, symSize: 0x24 }
  - { offsetInCU: 0x313F8, offset: 0x313F8, size: 0x8, addend: 0x0, symName: __ZNKSt3__16vectorI7MyTokenNS_9allocatorIS1_EEE7__allocB7v160006Ev, symObjAddr: 0x1A6D8, symBinAddr: 0x10001ECA8, symSize: 0x28 }
  - { offsetInCU: 0x3141E, offset: 0x3141E, size: 0x8, addend: 0x0, symName: __ZNKSt3__19allocatorI7MyTokenE8max_sizeB7v160006Ev, symObjAddr: 0x1A700, symBinAddr: 0x10001ECD0, symSize: 0x14 }
  - { offsetInCU: 0x31444, offset: 0x31444, size: 0x8, addend: 0x0, symName: __ZNKSt3__117__compressed_pairIP7MyTokenNS_9allocatorIS1_EEE6secondB7v160006Ev, symObjAddr: 0x1A714, symBinAddr: 0x10001ECE4, symSize: 0x24 }
  - { offsetInCU: 0x3146A, offset: 0x3146A, size: 0x8, addend: 0x0, symName: __ZNKSt3__122__compressed_pair_elemINS_9allocatorI7MyTokenEELi1ELb1EE5__getB7v160006Ev, symObjAddr: 0x1A738, symBinAddr: 0x10001ED08, symSize: 0x14 }
  - { offsetInCU: 0x31490, offset: 0x31490, size: 0x8, addend: 0x0, symName: __ZNSt3__114__split_bufferI7MyTokenRNS_9allocatorIS1_EEEC2EmmS4_, symObjAddr: 0x1A74C, symBinAddr: 0x10001ED1C, symSize: 0xD4 }
  - { offsetInCU: 0x31503, offset: 0x31503, size: 0x8, addend: 0x0, symName: __ZNSt3__117__compressed_pairIP7MyTokenRNS_9allocatorIS1_EEEC1B7v160006IDnS5_EEOT_OT0_, symObjAddr: 0x1A820, symBinAddr: 0x10001EDF0, symSize: 0x3C }
  - { offsetInCU: 0x3155B, offset: 0x3155B, size: 0x8, addend: 0x0, symName: __ZNSt3__114__split_bufferI7MyTokenRNS_9allocatorIS1_EEE7__allocB7v160006Ev, symObjAddr: 0x1A89C, symBinAddr: 0x10001EE6C, symSize: 0x28 }
  - { offsetInCU: 0x31581, offset: 0x31581, size: 0x8, addend: 0x0, symName: __ZNSt3__114__split_bufferI7MyTokenRNS_9allocatorIS1_EEE9__end_capB7v160006Ev, symObjAddr: 0x1A8C4, symBinAddr: 0x10001EE94, symSize: 0x28 }
  - { offsetInCU: 0x315A7, offset: 0x315A7, size: 0x8, addend: 0x0, symName: __ZNSt3__117__compressed_pairIP7MyTokenRNS_9allocatorIS1_EEEC2B7v160006IDnS5_EEOT_OT0_, symObjAddr: 0x1A8EC, symBinAddr: 0x10001EEBC, symSize: 0x48 }
  - { offsetInCU: 0x315FF, offset: 0x315FF, size: 0x8, addend: 0x0, symName: __ZNSt3__122__compressed_pair_elemIRNS_9allocatorI7MyTokenEELi1ELb0EEC2B7v160006IS4_vEEOT_, symObjAddr: 0x1A934, symBinAddr: 0x10001EF04, symSize: 0x20 }
  - { offsetInCU: 0x31641, offset: 0x31641, size: 0x8, addend: 0x0, symName: __ZNSt3__19allocatorI7MyTokenE8allocateB7v160006Em, symObjAddr: 0x1A954, symBinAddr: 0x10001EF24, symSize: 0x58 }
  - { offsetInCU: 0x31675, offset: 0x31675, size: 0x8, addend: 0x0, symName: __ZNSt3__117__compressed_pairIP7MyTokenRNS_9allocatorIS1_EEE6secondB7v160006Ev, symObjAddr: 0x1A9AC, symBinAddr: 0x10001EF7C, symSize: 0x28 }
  - { offsetInCU: 0x3169B, offset: 0x3169B, size: 0x8, addend: 0x0, symName: __ZNSt3__122__compressed_pair_elemIRNS_9allocatorI7MyTokenEELi1ELb0EE5__getB7v160006Ev, symObjAddr: 0x1A9D4, symBinAddr: 0x10001EFA4, symSize: 0x18 }
  - { offsetInCU: 0x316C1, offset: 0x316C1, size: 0x8, addend: 0x0, symName: __ZNSt3__117__compressed_pairIP7MyTokenRNS_9allocatorIS1_EEE5firstB7v160006Ev, symObjAddr: 0x1A9EC, symBinAddr: 0x10001EFBC, symSize: 0x24 }
  - { offsetInCU: 0x316E7, offset: 0x316E7, size: 0x8, addend: 0x0, symName: __ZNSt3__116reverse_iteratorIP7MyTokenEC1B7v160006ES2_, symObjAddr: 0x1AB3C, symBinAddr: 0x10001F10C, symSize: 0x34 }
  - { offsetInCU: 0x3171F, offset: 0x3171F, size: 0x8, addend: 0x0, symName: __ZNKSt3__116reverse_iteratorIP7MyTokenE4baseB7v160006Ev, symObjAddr: 0x1AB70, symBinAddr: 0x10001F140, symSize: 0x18 }
  - { offsetInCU: 0x31745, offset: 0x31745, size: 0x8, addend: 0x0, symName: __ZNKSt3__16vectorI7MyTokenNS_9allocatorIS1_EEE14__annotate_newB7v160006Em, symObjAddr: 0x1ABC4, symBinAddr: 0x10001F194, symSize: 0xAC }
  - { offsetInCU: 0x3177A, offset: 0x3177A, size: 0x8, addend: 0x0, symName: __ZNSt3__129_AllocatorDestroyRangeReverseINS_9allocatorI7MyTokenEENS_16reverse_iteratorIPS2_EEEC1B7v160006ERS3_RS6_S9_, symObjAddr: 0x1ACCC, symBinAddr: 0x10001F29C, symSize: 0x44 }
  - { offsetInCU: 0x317D7, offset: 0x317D7, size: 0x8, addend: 0x0, symName: __ZNSt3__116allocator_traitsINS_9allocatorI7MyTokenEEE9constructB7v160006IS2_JS2_EvEEvRS3_PT_DpOT0_, symObjAddr: 0x1AD58, symBinAddr: 0x10001F328, symSize: 0x34 }
  - { offsetInCU: 0x3182E, offset: 0x3182E, size: 0x8, addend: 0x0, symName: __ZNKSt3__116reverse_iteratorIP7MyTokenEdeB7v160006Ev, symObjAddr: 0x1ADB0, symBinAddr: 0x10001F380, symSize: 0x28 }
  - { offsetInCU: 0x31862, offset: 0x31862, size: 0x8, addend: 0x0, symName: __ZNSt3__116reverse_iteratorIP7MyTokenEppB7v160006Ev, symObjAddr: 0x1ADD8, symBinAddr: 0x10001F3A8, symSize: 0x20 }
  - { offsetInCU: 0x31888, offset: 0x31888, size: 0x8, addend: 0x0, symName: __ZNSt3__128__exception_guard_exceptionsINS_29_AllocatorDestroyRangeReverseINS_9allocatorI7MyTokenEENS_16reverse_iteratorIPS3_EEEEE10__completeB7v160006Ev, symObjAddr: 0x1ADF8, symBinAddr: 0x10001F3C8, symSize: 0x1C }
  - { offsetInCU: 0x318AE, offset: 0x318AE, size: 0x8, addend: 0x0, symName: __ZNSt3__128__exception_guard_exceptionsINS_29_AllocatorDestroyRangeReverseINS_9allocatorI7MyTokenEENS_16reverse_iteratorIPS3_EEEEED1B7v160006Ev, symObjAddr: 0x1AE14, symBinAddr: 0x10001F3E4, symSize: 0x2C }
  - { offsetInCU: 0x318D8, offset: 0x318D8, size: 0x8, addend: 0x0, symName: __ZNSt3__128__exception_guard_exceptionsINS_29_AllocatorDestroyRangeReverseINS_9allocatorI7MyTokenEENS_16reverse_iteratorIPS3_EEEEEC1B7v160006ES8_, symObjAddr: 0x1AE40, symBinAddr: 0x10001F410, symSize: 0x34 }
  - { offsetInCU: 0x31911, offset: 0x31911, size: 0x8, addend: 0x0, symName: __ZNSt3__128__exception_guard_exceptionsINS_29_AllocatorDestroyRangeReverseINS_9allocatorI7MyTokenEENS_16reverse_iteratorIPS3_EEEEEC2B7v160006ES8_, symObjAddr: 0x1AE74, symBinAddr: 0x10001F444, symSize: 0x30 }
  - { offsetInCU: 0x3194A, offset: 0x3194A, size: 0x8, addend: 0x0, symName: __ZNSt3__129_AllocatorDestroyRangeReverseINS_9allocatorI7MyTokenEENS_16reverse_iteratorIPS2_EEEC2B7v160006ERS3_RS6_S9_, symObjAddr: 0x1AEA4, symBinAddr: 0x10001F474, symSize: 0x38 }
  - { offsetInCU: 0x319A1, offset: 0x319A1, size: 0x8, addend: 0x0, symName: __ZNSt3__19allocatorI7MyTokenE9constructB7v160006IS1_JS1_EEEvPT_DpOT0_, symObjAddr: 0x1AEDC, symBinAddr: 0x10001F4AC, symSize: 0x30 }
  - { offsetInCU: 0x319F7, offset: 0x319F7, size: 0x8, addend: 0x0, symName: __ZN7MyTokenC1EOS_, symObjAddr: 0x1AF0C, symBinAddr: 0x10001F4DC, symSize: 0x34 }
  - { offsetInCU: 0x31A2C, offset: 0x31A2C, size: 0x8, addend: 0x0, symName: __ZN7MyTokenC2EOS_, symObjAddr: 0x1AF40, symBinAddr: 0x10001F510, symSize: 0x68 }
  - { offsetInCU: 0x31A66, offset: 0x31A66, size: 0x8, addend: 0x0, symName: __ZNSt3__119__to_address_helperINS_16reverse_iteratorIP7MyTokenEEvE6__callB7v160006ERKS4_, symObjAddr: 0x1AFA8, symBinAddr: 0x10001F578, symSize: 0x38 }
  - { offsetInCU: 0x31A89, offset: 0x31A89, size: 0x8, addend: 0x0, symName: __ZNKSt3__116reverse_iteratorIP7MyTokenEptB7v160006Ev, symObjAddr: 0x1AFE0, symBinAddr: 0x10001F5B0, symSize: 0x24 }
  - { offsetInCU: 0x31AAF, offset: 0x31AAF, size: 0x8, addend: 0x0, symName: __ZNSt3__128__exception_guard_exceptionsINS_29_AllocatorDestroyRangeReverseINS_9allocatorI7MyTokenEENS_16reverse_iteratorIPS3_EEEEED2B7v160006Ev, symObjAddr: 0x1B004, symBinAddr: 0x10001F5D4, symSize: 0x50 }
  - { offsetInCU: 0x31AD9, offset: 0x31AD9, size: 0x8, addend: 0x0, symName: __ZNKSt3__129_AllocatorDestroyRangeReverseINS_9allocatorI7MyTokenEENS_16reverse_iteratorIPS2_EEEclB7v160006Ev, symObjAddr: 0x1B054, symBinAddr: 0x10001F624, symSize: 0xB4 }
  - { offsetInCU: 0x31B00, offset: 0x31B00, size: 0x8, addend: 0x0, symName: __ZNSt3__116reverse_iteratorINS0_IP7MyTokenEEEC1B7v160006ES3_, symObjAddr: 0x1B178, symBinAddr: 0x10001F748, symSize: 0x3C }
  - { offsetInCU: 0x31B38, offset: 0x31B38, size: 0x8, addend: 0x0, symName: __ZNSt3__116reverse_iteratorINS0_IP7MyTokenEEEppB7v160006Ev, symObjAddr: 0x1B238, symBinAddr: 0x10001F808, symSize: 0x30 }
  - { offsetInCU: 0x31B5E, offset: 0x31B5E, size: 0x8, addend: 0x0, symName: __ZNKSt3__116reverse_iteratorINS0_IP7MyTokenEEE4baseB7v160006Ev, symObjAddr: 0x1B268, symBinAddr: 0x10001F838, symSize: 0x24 }
  - { offsetInCU: 0x31B89, offset: 0x31B89, size: 0x8, addend: 0x0, symName: __ZNSt3__119__to_address_helperINS_16reverse_iteratorINS1_IP7MyTokenEEEEvE6__callB7v160006ERKS5_, symObjAddr: 0x1B28C, symBinAddr: 0x10001F85C, symSize: 0x38 }
  - { offsetInCU: 0x31BAC, offset: 0x31BAC, size: 0x8, addend: 0x0, symName: __ZNKSt3__116reverse_iteratorINS0_IP7MyTokenEEEptB7v160006Ev, symObjAddr: 0x1B2C4, symBinAddr: 0x10001F894, symSize: 0x24 }
  - { offsetInCU: 0x31BD2, offset: 0x31BD2, size: 0x8, addend: 0x0, symName: __ZNKSt3__116reverse_iteratorINS0_IP7MyTokenEEEdeB7v160006Ev, symObjAddr: 0x1B2E8, symBinAddr: 0x10001F8B8, symSize: 0x34 }
  - { offsetInCU: 0x31C06, offset: 0x31C06, size: 0x8, addend: 0x0, symName: __ZNSt3__116reverse_iteratorIP7MyTokenEmmB7v160006Ev, symObjAddr: 0x1B31C, symBinAddr: 0x10001F8EC, symSize: 0x20 }
  - { offsetInCU: 0x31C2C, offset: 0x31C2C, size: 0x8, addend: 0x0, symName: __ZNSt3__116reverse_iteratorINS0_IP7MyTokenEEEC2B7v160006ES3_, symObjAddr: 0x1B33C, symBinAddr: 0x10001F90C, symSize: 0x2C }
  - { offsetInCU: 0x31C64, offset: 0x31C64, size: 0x8, addend: 0x0, symName: __ZNSt3__116reverse_iteratorIP7MyTokenEC2B7v160006ES2_, symObjAddr: 0x1B368, symBinAddr: 0x10001F938, symSize: 0x28 }
  - { offsetInCU: 0x31C9C, offset: 0x31C9C, size: 0x8, addend: 0x0, symName: __ZNSt3__114__split_bufferI7MyTokenRNS_9allocatorIS1_EEED2Ev, symObjAddr: 0x1B390, symBinAddr: 0x10001F960, symSize: 0x8C }
  - { offsetInCU: 0x31CC8, offset: 0x31CC8, size: 0x8, addend: 0x0, symName: __ZNSt3__114__split_bufferI7MyTokenRNS_9allocatorIS1_EEE5clearB7v160006Ev, symObjAddr: 0x1B41C, symBinAddr: 0x10001F9EC, symSize: 0x28 }
  - { offsetInCU: 0x31CEE, offset: 0x31CEE, size: 0x8, addend: 0x0, symName: __ZNKSt3__114__split_bufferI7MyTokenRNS_9allocatorIS1_EEE8capacityB7v160006Ev, symObjAddr: 0x1B444, symBinAddr: 0x10001FA14, symSize: 0x40 }
  - { offsetInCU: 0x31D14, offset: 0x31D14, size: 0x8, addend: 0x0, symName: __ZNSt3__114__split_bufferI7MyTokenRNS_9allocatorIS1_EEE17__destruct_at_endB7v160006EPS1_, symObjAddr: 0x1B484, symBinAddr: 0x10001FA54, symSize: 0x2C }
  - { offsetInCU: 0x31D48, offset: 0x31D48, size: 0x8, addend: 0x0, symName: __ZNSt3__114__split_bufferI7MyTokenRNS_9allocatorIS1_EEE17__destruct_at_endB7v160006EPS1_NS_17integral_constantIbLb0EEE, symObjAddr: 0x1B4B0, symBinAddr: 0x10001FA80, symSize: 0x80 }
  - { offsetInCU: 0x31D88, offset: 0x31D88, size: 0x8, addend: 0x0, symName: __ZNKSt3__114__split_bufferI7MyTokenRNS_9allocatorIS1_EEE9__end_capB7v160006Ev, symObjAddr: 0x1B530, symBinAddr: 0x10001FB00, symSize: 0x28 }
  - { offsetInCU: 0x31DAE, offset: 0x31DAE, size: 0x8, addend: 0x0, symName: __ZNKSt3__117__compressed_pairIP7MyTokenRNS_9allocatorIS1_EEE5firstB7v160006Ev, symObjAddr: 0x1B558, symBinAddr: 0x10001FB28, symSize: 0x24 }
  - { offsetInCU: 0x31DD4, offset: 0x31DD4, size: 0x8, addend: 0x0, symName: __ZNSt3__112basic_stringIcNS_11char_traitsIcEENS_9allocatorIcEEE15__make_iteratorB7v160006EPc, symObjAddr: 0x1B57C, symBinAddr: 0x10001FB4C, symSize: 0x34 }
  - { offsetInCU: 0x31E09, offset: 0x31E09, size: 0x8, addend: 0x0, symName: __ZNSt3__111__wrap_iterIPcEC1B7v160006EPKvS1_, symObjAddr: 0x1B5B0, symBinAddr: 0x10001FB80, symSize: 0x3C }
  - { offsetInCU: 0x31E4F, offset: 0x31E4F, size: 0x8, addend: 0x0, symName: __ZNSt3__111__wrap_iterIPcEC2B7v160006EPKvS1_, symObjAddr: 0x1B5EC, symBinAddr: 0x10001FBBC, symSize: 0x24 }
  - { offsetInCU: 0x31E95, offset: 0x31E95, size: 0x8, addend: 0x0, symName: __ZNSt3__113basic_ostreamIcNS_11char_traitsIcEEEC2B7v160006EPNS_15basic_streambufIcS2_EE, symObjAddr: 0x1B610, symBinAddr: 0x10001FBE0, symSize: 0x60 }
  - { offsetInCU: 0x31EDA, offset: 0x31EDA, size: 0x8, addend: 0x0, symName: __ZNSt3__16vectorI7MyTokenNS_9allocatorIS1_EEE11__make_iterB7v160006EPS1_, symObjAddr: 0x1B670, symBinAddr: 0x10001FC40, symSize: 0x34 }
  - { offsetInCU: 0x31F0F, offset: 0x31F0F, size: 0x8, addend: 0x0, symName: __ZNSt3__111__wrap_iterIP7MyTokenEC1B7v160006EPKvS2_, symObjAddr: 0x1B6A4, symBinAddr: 0x10001FC74, symSize: 0x3C }
  - { offsetInCU: 0x31F55, offset: 0x31F55, size: 0x8, addend: 0x0, symName: __ZNSt3__111__wrap_iterIP7MyTokenEC2B7v160006EPKvS2_, symObjAddr: 0x1B6E0, symBinAddr: 0x10001FCB0, symSize: 0x24 }
  - { offsetInCU: 0x31F9B, offset: 0x31F9B, size: 0x8, addend: 0x0, symName: __ZNSt3__110unique_ptrI8TreenodeNS_14default_deleteIS1_EEED2B7v160006Ev, symObjAddr: 0x1B704, symBinAddr: 0x10001FCD4, symSize: 0x30 }
  - { offsetInCU: 0x31FC5, offset: 0x31FC5, size: 0x8, addend: 0x0, symName: __ZNSt3__16vectorI7MyTokenNS_9allocatorIS1_EEEC2B7v160006EOS4_, symObjAddr: 0x1B734, symBinAddr: 0x10001FD04, symSize: 0xDC }
  - { offsetInCU: 0x32006, offset: 0x32006, size: 0x8, addend: 0x0, symName: __ZNSt3__117__compressed_pairIP7MyTokenNS_9allocatorIS1_EEEC1B7v160006IDnS4_EEOT_OT0_, symObjAddr: 0x1B810, symBinAddr: 0x10001FDE0, symSize: 0x3C }
  - { offsetInCU: 0x3205E, offset: 0x3205E, size: 0x8, addend: 0x0, symName: __ZNSt3__117__compressed_pairIP7MyTokenNS_9allocatorIS1_EEEC2B7v160006IDnS4_EEOT_OT0_, symObjAddr: 0x1B860, symBinAddr: 0x10001FE30, symSize: 0x44 }
  - { offsetInCU: 0x320B6, offset: 0x320B6, size: 0x8, addend: 0x0, symName: __ZNSt3__122__compressed_pair_elemINS_9allocatorI7MyTokenEELi1ELb1EEC2B7v160006IS3_vEEOT_, symObjAddr: 0x1B8A4, symBinAddr: 0x10001FE74, symSize: 0x18 }
...
